; ModuleID = 'json-showcase'
source_filename = "json-showcase"
target datalayout = "e-m:w-p270:32:32-p271:32:32-p272:64:64-i64:64-f80:128-n8:16:32:64-S128"
target triple = "x86_64-pc-windows-msvc"

%"$CD_UsingDeserializer" = type { i8*, i64, i16, [0 x { i64, i64, i8* }]*, [4 x i8*] }
%UsingDeserializer = type { i8*, %Simatic.Ax.Json.Deserializer, [1000 x i8], %STRING.0, %STRING.0, i32, i1 }
%Simatic.Ax.Json.Deserializer = type { i8*, [1000 x i8]* }
%STRING.0 = type { i8, i8, [255 x i8] }
%"$CD_Simatic.Ax.Json.Deserializer" = type { i8*, i64, i16, [0 x { i64, i64, i8* }]*, [19 x i8*] }
%"$CD_UsingSerializer" = type { i8*, i64, i16, [0 x { i64, i64, i8* }]*, [0 x i8*] }
%UsingSerializer = type { i8*, %Simatic.Ax.Json.JsonDocument, [21 x i8], %Simatic.Ax.Json.JsonBoolean, %Simatic.Ax.Json.JsonString }
%Simatic.Ax.Json.JsonDocument = type { i8*, [1000 x i8], %Simatic.Ax.Json.IJsonElementMuteable*, %Simatic.Ax.Json.IJsonElementMuteable*, %Simatic.Ax.Json.IJsonElement*, i32, i32, i32 }
%Simatic.Ax.Json.IJsonElementMuteable = type { i8*, [3 x i8*] }
%Simatic.Ax.Json.IJsonElement = type { i8*, [2 x i8*] }
%Simatic.Ax.Json.JsonBoolean = type { %Simatic.Ax.Json.BaseJsonNumber, i1 }
%Simatic.Ax.Json.BaseJsonNumber = type { %Simatic.Ax.Json.AbstractJsonElement }
%Simatic.Ax.Json.AbstractJsonElement = type { i8*, %Simatic.Ax.Json.IJsonElementMuteable*, %Simatic.Ax.Json.IJsonElement*, %STRING.0, %Simatic.Ax.Json.IJsonElementMuteable* }
%Simatic.Ax.Json.JsonString = type { %Simatic.Ax.Json.AbstractJsonElement, %STRING.0 }
%"$CD_Simatic.Ax.Json.JsonDocument" = type { i8*, i64, i16, [0 x { i64, i64, i8* }]*, [7 x i8*] }
%"$CD_Simatic.Ax.Json.AbstractJsonElement" = type { i8*, i64, i16, [2 x { i64, i64, i8* }]*, [7 x i8*] }
%"$CD_Simatic.Ax.Json.BaseJsonNumber" = type { i8*, i64, i16, [2 x { i64, i64, i8* }]*, [7 x i8*] }
%"$CD_Simatic.Ax.Json.JsonBoolean" = type { i8*, i64, i16, [2 x { i64, i64, i8* }]*, [7 x i8*] }
%"$CD_Simatic.Ax.Json.JsonString" = type { i8*, i64, i16, [2 x { i64, i64, i8* }]*, [7 x i8*] }
%"$CD_Simatic.Ax.Json.JsonDInt" = type { i8*, i64, i16, [2 x { i64, i64, i8* }]*, [7 x i8*] }
%Simatic.Ax.Json.JsonDInt = type { %Simatic.Ax.Json.BaseJsonNumber, i32 }
%"$CD_Simatic.Ax.Json.JsonInt" = type { i8*, i64, i16, [2 x { i64, i64, i8* }]*, [7 x i8*] }
%Simatic.Ax.Json.JsonInt = type { %Simatic.Ax.Json.BaseJsonNumber, i16 }
%"$CD_Simatic.Ax.Json.JsonLInt" = type { i8*, i64, i16, [2 x { i64, i64, i8* }]*, [7 x i8*] }
%Simatic.Ax.Json.JsonLInt = type { %Simatic.Ax.Json.BaseJsonNumber, i64 }
%"$CD_Simatic.Ax.Json.JsonUSInt" = type { i8*, i64, i16, [2 x { i64, i64, i8* }]*, [7 x i8*] }
%Simatic.Ax.Json.JsonUSInt = type { %Simatic.Ax.Json.BaseJsonNumber, i8 }
%"$CD_Simatic.Ax.Json.JsonSInt" = type { i8*, i64, i16, [2 x { i64, i64, i8* }]*, [7 x i8*] }
%Simatic.Ax.Json.JsonSInt = type { %Simatic.Ax.Json.BaseJsonNumber, i8 }
%"$CD_Simatic.Ax.Json.DeserializedObject" = type { i8*, i64, i16, [0 x { i64, i64, i8* }]*, [0 x i8*] }
%Simatic.Ax.Json.DeserializedObject = type { i8*, i16, i16, i16, i16 }
%"$CD_Simatic.Ax.Json.JsonObject" = type { i8*, i64, i16, [2 x { i64, i64, i8* }]*, [7 x i8*] }
%Simatic.Ax.Json.JsonObject = type { %Simatic.Ax.Json.AbstractJsonElement, %Simatic.Ax.Json.IJsonElementMuteable*, %Simatic.Ax.Json.IJsonElementMuteable* }
%AxUnit.Mocking.IPayload = type { i8*, [0 x i8*] }
%"$Task" = type { i32 }
%"STRING[0]" = type { i8, i8, [1 x i8] }
%"STRING[66]" = type { i8, i8, [67 x i8] }
%"STRING[4]" = type { i8, i8, [5 x i8] }
%"STRING[11]" = type { i8, i8, [12 x i8] }
%"STRING[9]" = type { i8, i8, [10 x i8] }
%"STRING[2]" = type { i8, i8, [3 x i8] }
%"STRING[27]" = type { i8, i8, [28 x i8] }
%"STRING[8]" = type { i8, i8, [9 x i8] }
%"STRING[12]" = type { i8, i8, [13 x i8] }
%"STRING[60]" = type { i8, i8, [61 x i8] }
%"STRING[49]" = type { i8, i8, [50 x i8] }
%"STRING[10]" = type { i8, i8, [11 x i8] }
%"STRING[85]" = type { i8, i8, [86 x i8] }
%"STRING[17]" = type { i8, i8, [18 x i8] }
%"STRING[3]" = type { i8, i8, [4 x i8] }
%"STRING[5]" = type { i8, i8, [6 x i8] }
%"$ax.ArrayBounds" = type { i32, i32, i32 }
%"$ax.ArrayWithBound" = type { i8*, i32, %"$ax.ArrayBounds"* }
%"STRING[6]" = type { i8, i8, [7 x i8] }
%"STRING[20]" = type { i8, i8, [21 x i8] }
%"STRING[1]" = type { i8, i8, [2 x i8] }
%"STRING[21]" = type { i8, i8, [22 x i8] }
%struct._iobuf = type { i8* }
%struct.__crt_locale_pointers = type { %struct.__crt_locale_data*, %struct.__crt_multibyte_data* }
%struct.__crt_locale_data = type opaque
%struct.__crt_multibyte_data = type opaque
%struct._ClassDescriptorStub = type { %struct._ClassDescriptorStub*, i64, i16, %struct._InterfaceTableEntry* }
%struct._InterfaceTableEntry = type { i64, i64, %struct._InterfaceDescriptorStub* }
%struct._InterfaceDescriptorStub = type { %struct._ClassDescriptorStub* }
%WSTRING.6 = type { i16, i16, [255 x i16] }

$printf = comdat any

$__local_stdio_printf_options = comdat any

$"??$$ax.Assign_String@DU$ax.ST_STRING@@@@YAXPEADPEBD@Z" = comdat any

$snprintf = comdat any

$"??$$ax.Assign_String@FU$ax.ST_WSTRING@@@@YAXPEAFPEBF@Z" = comdat any

$"??$ax_Concat_String@Uax_ST_STRING@@@@YA?AUax_ST_STRING@@PEBD0@Z" = comdat any

$"??$are_strings_ok_dss@Uax_ST_STRING@@@@YA_NPEAUax_ST_STRING@@PEBU0@1@Z" = comdat any

$"??$safe_add@Uax_ST_STRING@@@@YAEEE@Z" = comdat any

$"??$cap@Uax_ST_STRING@@@@YAEE@Z" = comdat any

$"??$min@E@std@@YAAEBEAEBE0@Z" = comdat any

$"??$get_string_sign@Uax_ST_STRING@@@@YAHPEBUax_ST_STRING@@_N@Z" = comdat any

$"??$are_strings_overlapping@Uax_ST_STRING@@@@YA_NPEBUax_ST_STRING@@0@Z" = comdat any

$"??$ax_Concat_String@Uax_ST_WSTRING@@@@YA?AUax_ST_WSTRING@@PEBF0@Z" = comdat any

$"??$are_strings_ok_dss@Uax_ST_WSTRING@@@@YA_NPEAUax_ST_WSTRING@@PEBU0@1@Z" = comdat any

$"??$safe_add@Uax_ST_WSTRING@@@@YAGGG@Z" = comdat any

$"??$cap@Uax_ST_WSTRING@@@@YAGG@Z" = comdat any

$"??$min@G@std@@YAAEBGAEBG0@Z" = comdat any

$"??$get_string_sign@Uax_ST_WSTRING@@@@YAHPEBUax_ST_WSTRING@@_N@Z" = comdat any

$"??$are_strings_overlapping@Uax_ST_WSTRING@@@@YA_NPEBUax_ST_WSTRING@@0@Z" = comdat any

$"??$ax_Substring@Uax_ST_STRING@@@@YA?AUax_ST_STRING@@PEBDHH@Z" = comdat any

$"??$ax_StrLen@Uax_ST_STRING@@@@YAHPEBD@Z" = comdat any

$"??$ax_Substring@Uax_ST_WSTRING@@@@YA?AUax_ST_WSTRING@@PEBFHH@Z" = comdat any

$"??$ax_StrLen@Uax_ST_WSTRING@@@@YAHPEBF@Z" = comdat any

$"??$ax_Insert@Uax_ST_STRING@@@@YA?AUax_ST_STRING@@PEBDH0@Z" = comdat any

$"??$ax_Remove@Uax_ST_STRING@@@@YA?AUax_ST_STRING@@PEBDHH@Z" = comdat any

$"??$ax_Insert@Uax_ST_WSTRING@@@@YA?AUax_ST_WSTRING@@PEBFH0@Z" = comdat any

$"??$ax_Remove@Uax_ST_WSTRING@@@@YA?AUax_ST_WSTRING@@PEBFHH@Z" = comdat any

$"??$ax_PositionOf@Uax_ST_STRING@@@@YAHPEBD0@Z" = comdat any

$"??$ax_PositionOf@Uax_ST_WSTRING@@@@YAHPEBF0@Z" = comdat any

$"??_C@_03OFAPEBGM@?$CFs?6?$AA@" = comdat any

$"?_OptionsStorage@?1??__local_stdio_printf_options@@9@4_KA" = comdat any

$"??_C@_0FE@HKMFAKJH@The?5dimension?5for?5lower_bound?5is@" = comdat any

$"??_C@_0FE@MELOPMAH@The?5dimension?5for?5upper_bound?5is@" = comdat any

$"??_C@_0FH@JGBLDNCE@String?5operation?5failed?3?5value?8s@" = comdat any

$"??_C@_03IGPHLJKL@NIL?$AA@" = comdat any

$"??_C@_0P@EALMCFKA@STRING_CORRUPT?$AA@" = comdat any

@Input = global [65536 x i8] zeroinitializer
@Output = global [65536 x i8] zeroinitializer
@Memory = global [65536 x i8] zeroinitializer
@axunit_assertionData = global [300 x i8] zeroinitializer, !dbg !0
@axunit_globalTestIdPos = global i16 0, !dbg !28
@axunit_globalSectionPosName = global i16 0, !dbg !24
@axunit_assertionData_Size = global i16 0
@axunit_dispatcher_current_impl_var = global [1 x i16] zeroinitializer
@GlobalAssertValue = global i1 false
@"$itf_table_UsingDeserializer" = linkonce_odr hidden global [0 x { i64, i64, i8* }] zeroinitializer
@"$cd_UsingDeserializer" = linkonce_odr hidden global %"$CD_UsingDeserializer" { i8* null, i64 ptrtoint (%UsingDeserializer* getelementptr (%UsingDeserializer, %UsingDeserializer* null, i32 1) to i64), i16 0, [0 x { i64, i64, i8* }]* @"$itf_table_UsingDeserializer", [4 x i8*] [i8* bitcast (void (%UsingDeserializer*)* @"UsingDeserializer.GetValue_ARRAY$I@R@UsingDeserializer@this" to i8*), i8* bitcast (void (%UsingDeserializer*)* @"UsingDeserializer.GetValue_BASIC_DATA_TYPES$I@R@UsingDeserializer@this" to i8*), i8* bitcast (void (%UsingDeserializer*)* @"UsingDeserializer.GetValue_Nested$I@R@UsingDeserializer@this" to i8*), i8* bitcast (void (%UsingDeserializer*)* @"UsingDeserializer.GetValue_Nested_in_Nested$I@R@UsingDeserializer@this" to i8*)] }
@"$itf_table_Simatic.Ax.Json.Deserializer" = linkonce_odr hidden global [0 x { i64, i64, i8* }] zeroinitializer
@"$cd_Simatic.Ax.Json.Deserializer" = linkonce_odr hidden global %"$CD_Simatic.Ax.Json.Deserializer" { i8* null, i64 mul nuw (i64 ptrtoint (i1** getelementptr (i1*, i1** null, i32 1) to i64), i64 2), i16 0, [0 x { i64, i64, i8* }]* @"$itf_table_Simatic.Ax.Json.Deserializer", [19 x i8*] [i8* bitcast (void (%Simatic.Ax.Json.Deserializer*, [1000 x i8]*)* @"Simatic.Ax.Json.Deserializer.SetBuffer$I@R@Simatic.Ax.Json.Deserializer@this?I@V@REF_TO ARRAY [0..999] OF CHAR@_buffer" to i8*), i8* bitcast (i1 (%Simatic.Ax.Json.Deserializer*, i8*, i32*)* @"Simatic.Ax.Json.Deserializer.TryParse$I@R@Simatic.Ax.Json.Deserializer@this?I@V@STRING@key?O@V@Int32@value" to i8*), i8* bitcast (i1 (%Simatic.Ax.Json.Deserializer*, i8*, i16*)* @"Simatic.Ax.Json.Deserializer.TryParse$I@R@Simatic.Ax.Json.Deserializer@this?I@V@STRING@key?O@V@Int16@value" to i8*), i8* bitcast (i1 (%Simatic.Ax.Json.Deserializer*, i8*, i64*)* @"Simatic.Ax.Json.Deserializer.TryParse$I@R@Simatic.Ax.Json.Deserializer@this?I@V@STRING@key?O@V@Int64@value" to i8*), i8* bitcast (i1 (%Simatic.Ax.Json.Deserializer*, i8*, i8*)* @"Simatic.Ax.Json.Deserializer.TryParse$I@R@Simatic.Ax.Json.Deserializer@this?I@V@STRING@key?O@V@Int8@value" to i8*), i8* bitcast (i1 (%Simatic.Ax.Json.Deserializer*, i8*, i8*)* @"Simatic.Ax.Json.Deserializer.TryParse$I@R@Simatic.Ax.Json.Deserializer@this?I@V@STRING@key?O@V@STRING@value" to i8*), i8* bitcast (i1 (%Simatic.Ax.Json.Deserializer*, i8*, i32*)* @"Simatic.Ax.Json.Deserializer.TryParse$I@R@Simatic.Ax.Json.Deserializer@this?I@V@STRING@key?O@V@UInt32@value" to i8*), i8* bitcast (i1 (%Simatic.Ax.Json.Deserializer*, i8*, i16*)* @"Simatic.Ax.Json.Deserializer.TryParse$I@R@Simatic.Ax.Json.Deserializer@this?I@V@STRING@key?O@V@UInt16@value" to i8*), i8* bitcast (i1 (%Simatic.Ax.Json.Deserializer*, i8*, i64*)* @"Simatic.Ax.Json.Deserializer.TryParse$I@R@Simatic.Ax.Json.Deserializer@this?I@V@STRING@key?O@V@UInt64@value" to i8*), i8* bitcast (i1 (%Simatic.Ax.Json.Deserializer*, i8*, i8*)* @"Simatic.Ax.Json.Deserializer.TryParse$I@R@Simatic.Ax.Json.Deserializer@this?I@V@STRING@key?O@V@UInt8@value" to i8*), i8* bitcast (i1 (%Simatic.Ax.Json.Deserializer*, %"$ax.ArrayWithBound", i32*)* @"Simatic.Ax.Json.Deserializer.TryParse$I@R@Simatic.Ax.Json.Deserializer@this?I@V@ARRAY [*] OF STRING@keyArray?O@V@Int32@value" to i8*), i8* bitcast (i1 (%Simatic.Ax.Json.Deserializer*, %"$ax.ArrayWithBound", i16*)* @"Simatic.Ax.Json.Deserializer.TryParse$I@R@Simatic.Ax.Json.Deserializer@this?I@V@ARRAY [*] OF STRING@keyArray?O@V@Int16@value" to i8*), i8* bitcast (i1 (%Simatic.Ax.Json.Deserializer*, %"$ax.ArrayWithBound", i64*)* @"Simatic.Ax.Json.Deserializer.TryParse$I@R@Simatic.Ax.Json.Deserializer@this?I@V@ARRAY [*] OF STRING@keyArray?O@V@Int64@value" to i8*), i8* bitcast (i1 (%Simatic.Ax.Json.Deserializer*, %"$ax.ArrayWithBound", i8*)* @"Simatic.Ax.Json.Deserializer.TryParse$I@R@Simatic.Ax.Json.Deserializer@this?I@V@ARRAY [*] OF STRING@keyArray?O@V@Int8@value" to i8*), i8* bitcast (i1 (%Simatic.Ax.Json.Deserializer*, %"$ax.ArrayWithBound", i8*)* @"Simatic.Ax.Json.Deserializer.TryParse$I@R@Simatic.Ax.Json.Deserializer@this?I@V@ARRAY [*] OF STRING@keyArray?O@V@STRING@value" to i8*), i8* bitcast (i1 (%Simatic.Ax.Json.Deserializer*, %"$ax.ArrayWithBound", i32*)* @"Simatic.Ax.Json.Deserializer.TryParse$I@R@Simatic.Ax.Json.Deserializer@this?I@V@ARRAY [*] OF STRING@keyArray?O@V@UInt32@value" to i8*), i8* bitcast (i1 (%Simatic.Ax.Json.Deserializer*, %"$ax.ArrayWithBound", i16*)* @"Simatic.Ax.Json.Deserializer.TryParse$I@R@Simatic.Ax.Json.Deserializer@this?I@V@ARRAY [*] OF STRING@keyArray?O@V@UInt16@value" to i8*), i8* bitcast (i1 (%Simatic.Ax.Json.Deserializer*, %"$ax.ArrayWithBound", i64*)* @"Simatic.Ax.Json.Deserializer.TryParse$I@R@Simatic.Ax.Json.Deserializer@this?I@V@ARRAY [*] OF STRING@keyArray?O@V@UInt64@value" to i8*), i8* bitcast (i1 (%Simatic.Ax.Json.Deserializer*, %"$ax.ArrayWithBound", i8*)* @"Simatic.Ax.Json.Deserializer.TryParse$I@R@Simatic.Ax.Json.Deserializer@this?I@V@ARRAY [*] OF STRING@keyArray?O@V@UInt8@value" to i8*)] }
@"$itf_table_UsingSerializer" = linkonce_odr hidden global [0 x { i64, i64, i8* }] zeroinitializer
@"$cd_UsingSerializer" = linkonce_odr hidden global %"$CD_UsingSerializer" { i8* null, i64 ptrtoint (%UsingSerializer* getelementptr (%UsingSerializer, %UsingSerializer* null, i32 1) to i64), i16 0, [0 x { i64, i64, i8* }]* @"$itf_table_UsingSerializer", [0 x i8*] zeroinitializer }
@"$itf_table_Simatic.Ax.Json.JsonDocument" = linkonce_odr hidden global [0 x { i64, i64, i8* }] zeroinitializer
@"$cd_Simatic.Ax.Json.JsonDocument" = linkonce_odr hidden global %"$CD_Simatic.Ax.Json.JsonDocument" { i8* null, i64 ptrtoint (%Simatic.Ax.Json.JsonDocument* getelementptr (%Simatic.Ax.Json.JsonDocument, %Simatic.Ax.Json.JsonDocument* null, i32 1) to i64), i16 0, [0 x { i64, i64, i8* }]* @"$itf_table_Simatic.Ax.Json.JsonDocument", [7 x i8*] [i8* bitcast (i1 (%Simatic.Ax.Json.JsonDocument*, i8)* @"Simatic.Ax.Json.JsonDocument.AddChar$I@R@Simatic.Ax.Json.JsonDocument@this?I@V@Char@c" to i8*), i8* bitcast (void (%Simatic.Ax.Json.JsonDocument*, %Simatic.Ax.Json.IJsonElement*)* @"Simatic.Ax.Json.JsonDocument.AddElement$I@R@Simatic.Ax.Json.JsonDocument@this?I@V@REF_TO Simatic.Ax.Json.IJsonElement@elem" to i8*), i8* bitcast (i1 (%Simatic.Ax.Json.JsonDocument*, i8*)* @"Simatic.Ax.Json.JsonDocument.AddString$I@R@Simatic.Ax.Json.JsonDocument@this?I@V@STRING@s" to i8*), i8* bitcast (i32 (%Simatic.Ax.Json.JsonDocument*)* @"Simatic.Ax.Json.JsonDocument.GetLength$I@R@Simatic.Ax.Json.JsonDocument@this" to i8*), i8* bitcast (%Simatic.Ax.Json.IJsonElement* (%Simatic.Ax.Json.JsonDocument*)* @"Simatic.Ax.Json.JsonDocument.GetRootElement$I@R@Simatic.Ax.Json.JsonDocument@this" to i8*), i8* bitcast (i1 (%Simatic.Ax.Json.JsonDocument*, %"$ax.ArrayWithBound"*)* @"Simatic.Ax.Json.JsonDocument.Serialize$I@R@Simatic.Ax.Json.JsonDocument@this?I@R@ARRAY [*] OF CHAR@buf" to i8*), i8* bitcast (%STRING.0 (%Simatic.Ax.Json.JsonDocument*)* @"Simatic.Ax.Json.JsonDocument.ToString$I@R@Simatic.Ax.Json.JsonDocument@this" to i8*)] }
@"$Simatic.Ax.Json.IJsonElementMuteable_Simatic.Ax.Json.AbstractJsonElement" = linkonce_odr hidden global %Simatic.Ax.Json.IJsonElementMuteable { i8* bitcast (%"$CD_Simatic.Ax.Json.AbstractJsonElement"* @"$cd_Simatic.Ax.Json.AbstractJsonElement" to i8*), [3 x i8*] [i8* bitcast (void (%Simatic.Ax.Json.IJsonElementMuteable*, %Simatic.Ax.Json.IJsonElement*)* @"$Simatic.Ax.Json.IJsonElementMuteable.AddElement_Simatic.Ax.Json.AbstractJsonElement$I@V@REF_TO Simatic.Ax.Json.IJsonElementMuteable@this?I@V@REF_TO Simatic.Ax.Json.IJsonElement@elem" to i8*), i8* bitcast (%Simatic.Ax.Json.IJsonElementMuteable* (%Simatic.Ax.Json.IJsonElementMuteable*)* @"$Simatic.Ax.Json.IJsonElementMuteable.GetNext_Simatic.Ax.Json.AbstractJsonElement$I@V@REF_TO Simatic.Ax.Json.IJsonElementMuteable@this" to i8*), i8* bitcast (i1 (%Simatic.Ax.Json.IJsonElementMuteable*)* @"$Simatic.Ax.Json.IJsonElementMuteable.HasNext_Simatic.Ax.Json.AbstractJsonElement$I@V@REF_TO Simatic.Ax.Json.IJsonElementMuteable@this" to i8*)] }
@"$Simatic.Ax.Json.IJsonElement_Simatic.Ax.Json.AbstractJsonElement" = linkonce_odr hidden global %Simatic.Ax.Json.IJsonElement { i8* bitcast (%"$CD_Simatic.Ax.Json.AbstractJsonElement"* @"$cd_Simatic.Ax.Json.AbstractJsonElement" to i8*), [2 x i8*] [i8* bitcast (i1 (%Simatic.Ax.Json.IJsonElement*, %Simatic.Ax.Json.JsonDocument*)* @"$Simatic.Ax.Json.IJsonElement.Serialize_Simatic.Ax.Json.AbstractJsonElement$I@V@REF_TO Simatic.Ax.Json.IJsonElement@this?I@V@REF_TO Simatic.Ax.Json.JsonDocument@doc" to i8*), i8* bitcast (%STRING.0 (%Simatic.Ax.Json.IJsonElement*)* @"$Simatic.Ax.Json.IJsonElement.ToString_Simatic.Ax.Json.AbstractJsonElement$I@V@REF_TO Simatic.Ax.Json.IJsonElement@this" to i8*)] }
@"$itf_table_Simatic.Ax.Json.AbstractJsonElement" = linkonce_odr hidden global [2 x { i64, i64, i8* }] [{ i64, i64, i8* } { i64 ptrtoint (i1** getelementptr (i1*, i1** null, i32 1) to i64), i64 -1600813877, i8* bitcast (%Simatic.Ax.Json.IJsonElementMuteable* @"$Simatic.Ax.Json.IJsonElementMuteable_Simatic.Ax.Json.AbstractJsonElement" to i8*) }, { i64, i64, i8* } { i64 mul nuw (i64 ptrtoint (i1** getelementptr (i1*, i1** null, i32 1) to i64), i64 2), i64 -274380306, i8* bitcast (%Simatic.Ax.Json.IJsonElement* @"$Simatic.Ax.Json.IJsonElement_Simatic.Ax.Json.AbstractJsonElement" to i8*) }]
@"$cd_Simatic.Ax.Json.AbstractJsonElement" = linkonce_odr hidden global %"$CD_Simatic.Ax.Json.AbstractJsonElement" { i8* null, i64 ptrtoint (%Simatic.Ax.Json.AbstractJsonElement* getelementptr (%Simatic.Ax.Json.AbstractJsonElement, %Simatic.Ax.Json.AbstractJsonElement* null, i32 1) to i64), i16 2, [2 x { i64, i64, i8* }]* @"$itf_table_Simatic.Ax.Json.AbstractJsonElement", [7 x i8*] [i8* bitcast (void (%Simatic.Ax.Json.AbstractJsonElement*, %Simatic.Ax.Json.IJsonElement*)* @"Simatic.Ax.Json.AbstractJsonElement.AddElement$I@R@Simatic.Ax.Json.AbstractJsonElement@this?I@V@REF_TO Simatic.Ax.Json.IJsonElement@elem" to i8*), i8* bitcast (%Simatic.Ax.Json.IJsonElementMuteable* (%Simatic.Ax.Json.AbstractJsonElement*)* @"Simatic.Ax.Json.AbstractJsonElement.GetNext$I@R@Simatic.Ax.Json.AbstractJsonElement@this" to i8*), i8* bitcast (i1 (%Simatic.Ax.Json.AbstractJsonElement*)* @"Simatic.Ax.Json.AbstractJsonElement.HasNext$I@R@Simatic.Ax.Json.AbstractJsonElement@this" to i8*), i8* bitcast (i1 (%Simatic.Ax.Json.AbstractJsonElement*, %Simatic.Ax.Json.JsonDocument*)* @"Simatic.Ax.Json.AbstractJsonElement.Serialize$I@R@Simatic.Ax.Json.AbstractJsonElement@this?I@V@REF_TO Simatic.Ax.Json.JsonDocument@doc" to i8*), i8* bitcast (i32 (%Simatic.Ax.Json.AbstractJsonElement*, %Simatic.Ax.Json.JsonDocument*, i8*)* @"Simatic.Ax.Json.AbstractJsonElement.SerializeHelper$I@R@Simatic.Ax.Json.AbstractJsonElement@this?I@V@REF_TO Simatic.Ax.Json.JsonDocument@doc?I@V@STRING@valueAsString" to i8*), i8* bitcast (%STRING.0 (%Simatic.Ax.Json.AbstractJsonElement*)* @"Simatic.Ax.Json.AbstractJsonElement.ToString$I@R@Simatic.Ax.Json.AbstractJsonElement@this" to i8*), i8* bitcast (%STRING.0 (%Simatic.Ax.Json.AbstractJsonElement*, i8*)* @"Simatic.Ax.Json.AbstractJsonElement.ToStringHelper$I@R@Simatic.Ax.Json.AbstractJsonElement@this?I@V@STRING@valueAsString" to i8*)] }
@"$Simatic.Ax.Json.IJsonElementMuteable_Simatic.Ax.Json.BaseJsonNumber" = linkonce_odr hidden global %Simatic.Ax.Json.IJsonElementMuteable { i8* bitcast (%"$CD_Simatic.Ax.Json.BaseJsonNumber"* @"$cd_Simatic.Ax.Json.BaseJsonNumber" to i8*), [3 x i8*] [i8* bitcast (void (%Simatic.Ax.Json.IJsonElementMuteable*, %Simatic.Ax.Json.IJsonElement*)* @"$Simatic.Ax.Json.IJsonElementMuteable.AddElement_Simatic.Ax.Json.BaseJsonNumber$I@V@REF_TO Simatic.Ax.Json.IJsonElementMuteable@this?I@V@REF_TO Simatic.Ax.Json.IJsonElement@elem" to i8*), i8* bitcast (%Simatic.Ax.Json.IJsonElementMuteable* (%Simatic.Ax.Json.IJsonElementMuteable*)* @"$Simatic.Ax.Json.IJsonElementMuteable.GetNext_Simatic.Ax.Json.BaseJsonNumber$I@V@REF_TO Simatic.Ax.Json.IJsonElementMuteable@this" to i8*), i8* bitcast (i1 (%Simatic.Ax.Json.IJsonElementMuteable*)* @"$Simatic.Ax.Json.IJsonElementMuteable.HasNext_Simatic.Ax.Json.BaseJsonNumber$I@V@REF_TO Simatic.Ax.Json.IJsonElementMuteable@this" to i8*)] }
@"$Simatic.Ax.Json.IJsonElement_Simatic.Ax.Json.BaseJsonNumber" = linkonce_odr hidden global %Simatic.Ax.Json.IJsonElement { i8* bitcast (%"$CD_Simatic.Ax.Json.BaseJsonNumber"* @"$cd_Simatic.Ax.Json.BaseJsonNumber" to i8*), [2 x i8*] [i8* bitcast (i1 (%Simatic.Ax.Json.IJsonElement*, %Simatic.Ax.Json.JsonDocument*)* @"$Simatic.Ax.Json.IJsonElement.Serialize_Simatic.Ax.Json.BaseJsonNumber$I@V@REF_TO Simatic.Ax.Json.IJsonElement@this?I@V@REF_TO Simatic.Ax.Json.JsonDocument@doc" to i8*), i8* bitcast (%STRING.0 (%Simatic.Ax.Json.IJsonElement*)* @"$Simatic.Ax.Json.IJsonElement.ToString_Simatic.Ax.Json.BaseJsonNumber$I@V@REF_TO Simatic.Ax.Json.IJsonElement@this" to i8*)] }
@"$itf_table_Simatic.Ax.Json.BaseJsonNumber" = linkonce_odr hidden global [2 x { i64, i64, i8* }] [{ i64, i64, i8* } { i64 ptrtoint (%Simatic.Ax.Json.IJsonElementMuteable** getelementptr ({ %Simatic.Ax.Json.AbstractJsonElement }, { %Simatic.Ax.Json.AbstractJsonElement }* null, i32 0, i32 0, i32 1) to i64), i64 -1600813877, i8* bitcast (%Simatic.Ax.Json.IJsonElementMuteable* @"$Simatic.Ax.Json.IJsonElementMuteable_Simatic.Ax.Json.BaseJsonNumber" to i8*) }, { i64, i64, i8* } { i64 ptrtoint (%Simatic.Ax.Json.IJsonElement** getelementptr ({ %Simatic.Ax.Json.AbstractJsonElement }, { %Simatic.Ax.Json.AbstractJsonElement }* null, i32 0, i32 0, i32 2) to i64), i64 -274380306, i8* bitcast (%Simatic.Ax.Json.IJsonElement* @"$Simatic.Ax.Json.IJsonElement_Simatic.Ax.Json.BaseJsonNumber" to i8*) }]
@"$cd_Simatic.Ax.Json.BaseJsonNumber" = linkonce_odr hidden global %"$CD_Simatic.Ax.Json.BaseJsonNumber" { i8* bitcast (%"$CD_Simatic.Ax.Json.AbstractJsonElement"* @"$cd_Simatic.Ax.Json.AbstractJsonElement" to i8*), i64 ptrtoint (%Simatic.Ax.Json.AbstractJsonElement* getelementptr (%Simatic.Ax.Json.AbstractJsonElement, %Simatic.Ax.Json.AbstractJsonElement* null, i32 1) to i64), i16 2, [2 x { i64, i64, i8* }]* @"$itf_table_Simatic.Ax.Json.BaseJsonNumber", [7 x i8*] [i8* bitcast (void (%Simatic.Ax.Json.AbstractJsonElement*, %Simatic.Ax.Json.IJsonElement*)* @"Simatic.Ax.Json.AbstractJsonElement.AddElement$I@R@Simatic.Ax.Json.AbstractJsonElement@this?I@V@REF_TO Simatic.Ax.Json.IJsonElement@elem" to i8*), i8* bitcast (%Simatic.Ax.Json.IJsonElementMuteable* (%Simatic.Ax.Json.AbstractJsonElement*)* @"Simatic.Ax.Json.AbstractJsonElement.GetNext$I@R@Simatic.Ax.Json.AbstractJsonElement@this" to i8*), i8* bitcast (i1 (%Simatic.Ax.Json.AbstractJsonElement*)* @"Simatic.Ax.Json.AbstractJsonElement.HasNext$I@R@Simatic.Ax.Json.AbstractJsonElement@this" to i8*), i8* bitcast (i1 (%Simatic.Ax.Json.BaseJsonNumber*, %Simatic.Ax.Json.JsonDocument*)* @"Simatic.Ax.Json.BaseJsonNumber.Serialize$I@R@Simatic.Ax.Json.BaseJsonNumber@this?I@V@REF_TO Simatic.Ax.Json.JsonDocument@doc" to i8*), i8* bitcast (i32 (%Simatic.Ax.Json.AbstractJsonElement*, %Simatic.Ax.Json.JsonDocument*, i8*)* @"Simatic.Ax.Json.AbstractJsonElement.SerializeHelper$I@R@Simatic.Ax.Json.AbstractJsonElement@this?I@V@REF_TO Simatic.Ax.Json.JsonDocument@doc?I@V@STRING@valueAsString" to i8*), i8* bitcast (%STRING.0 (%Simatic.Ax.Json.BaseJsonNumber*)* @"Simatic.Ax.Json.BaseJsonNumber.ToString$I@R@Simatic.Ax.Json.BaseJsonNumber@this" to i8*), i8* bitcast (%STRING.0 (%Simatic.Ax.Json.BaseJsonNumber*, i8*)* @"Simatic.Ax.Json.BaseJsonNumber.ToStringHelper$I@R@Simatic.Ax.Json.BaseJsonNumber@this?I@V@STRING@valueAsString" to i8*)] }
@"$Simatic.Ax.Json.IJsonElementMuteable_Simatic.Ax.Json.JsonBoolean" = linkonce_odr hidden global %Simatic.Ax.Json.IJsonElementMuteable { i8* bitcast (%"$CD_Simatic.Ax.Json.JsonBoolean"* @"$cd_Simatic.Ax.Json.JsonBoolean" to i8*), [3 x i8*] [i8* bitcast (void (%Simatic.Ax.Json.IJsonElementMuteable*, %Simatic.Ax.Json.IJsonElement*)* @"$Simatic.Ax.Json.IJsonElementMuteable.AddElement_Simatic.Ax.Json.JsonBoolean$I@V@REF_TO Simatic.Ax.Json.IJsonElementMuteable@this?I@V@REF_TO Simatic.Ax.Json.IJsonElement@elem" to i8*), i8* bitcast (%Simatic.Ax.Json.IJsonElementMuteable* (%Simatic.Ax.Json.IJsonElementMuteable*)* @"$Simatic.Ax.Json.IJsonElementMuteable.GetNext_Simatic.Ax.Json.JsonBoolean$I@V@REF_TO Simatic.Ax.Json.IJsonElementMuteable@this" to i8*), i8* bitcast (i1 (%Simatic.Ax.Json.IJsonElementMuteable*)* @"$Simatic.Ax.Json.IJsonElementMuteable.HasNext_Simatic.Ax.Json.JsonBoolean$I@V@REF_TO Simatic.Ax.Json.IJsonElementMuteable@this" to i8*)] }
@"$Simatic.Ax.Json.IJsonElement_Simatic.Ax.Json.JsonBoolean" = linkonce_odr hidden global %Simatic.Ax.Json.IJsonElement { i8* bitcast (%"$CD_Simatic.Ax.Json.JsonBoolean"* @"$cd_Simatic.Ax.Json.JsonBoolean" to i8*), [2 x i8*] [i8* bitcast (i1 (%Simatic.Ax.Json.IJsonElement*, %Simatic.Ax.Json.JsonDocument*)* @"$Simatic.Ax.Json.IJsonElement.Serialize_Simatic.Ax.Json.JsonBoolean$I@V@REF_TO Simatic.Ax.Json.IJsonElement@this?I@V@REF_TO Simatic.Ax.Json.JsonDocument@doc" to i8*), i8* bitcast (%STRING.0 (%Simatic.Ax.Json.IJsonElement*)* @"$Simatic.Ax.Json.IJsonElement.ToString_Simatic.Ax.Json.JsonBoolean$I@V@REF_TO Simatic.Ax.Json.IJsonElement@this" to i8*)] }
@"$itf_table_Simatic.Ax.Json.JsonBoolean" = linkonce_odr hidden global [2 x { i64, i64, i8* }] [{ i64, i64, i8* } { i64 ptrtoint (%Simatic.Ax.Json.IJsonElementMuteable** getelementptr ({ %Simatic.Ax.Json.BaseJsonNumber }, { %Simatic.Ax.Json.BaseJsonNumber }* null, i32 0, i32 0, i32 0, i32 1) to i64), i64 -1600813877, i8* bitcast (%Simatic.Ax.Json.IJsonElementMuteable* @"$Simatic.Ax.Json.IJsonElementMuteable_Simatic.Ax.Json.JsonBoolean" to i8*) }, { i64, i64, i8* } { i64 ptrtoint (%Simatic.Ax.Json.IJsonElement** getelementptr ({ %Simatic.Ax.Json.BaseJsonNumber }, { %Simatic.Ax.Json.BaseJsonNumber }* null, i32 0, i32 0, i32 0, i32 2) to i64), i64 -274380306, i8* bitcast (%Simatic.Ax.Json.IJsonElement* @"$Simatic.Ax.Json.IJsonElement_Simatic.Ax.Json.JsonBoolean" to i8*) }]
@"$cd_Simatic.Ax.Json.JsonBoolean" = linkonce_odr hidden global %"$CD_Simatic.Ax.Json.JsonBoolean" { i8* bitcast (%"$CD_Simatic.Ax.Json.BaseJsonNumber"* @"$cd_Simatic.Ax.Json.BaseJsonNumber" to i8*), i64 ptrtoint (%Simatic.Ax.Json.JsonBoolean* getelementptr (%Simatic.Ax.Json.JsonBoolean, %Simatic.Ax.Json.JsonBoolean* null, i32 1) to i64), i16 2, [2 x { i64, i64, i8* }]* @"$itf_table_Simatic.Ax.Json.JsonBoolean", [7 x i8*] [i8* bitcast (void (%Simatic.Ax.Json.AbstractJsonElement*, %Simatic.Ax.Json.IJsonElement*)* @"Simatic.Ax.Json.AbstractJsonElement.AddElement$I@R@Simatic.Ax.Json.AbstractJsonElement@this?I@V@REF_TO Simatic.Ax.Json.IJsonElement@elem" to i8*), i8* bitcast (%Simatic.Ax.Json.IJsonElementMuteable* (%Simatic.Ax.Json.AbstractJsonElement*)* @"Simatic.Ax.Json.AbstractJsonElement.GetNext$I@R@Simatic.Ax.Json.AbstractJsonElement@this" to i8*), i8* bitcast (i1 (%Simatic.Ax.Json.AbstractJsonElement*)* @"Simatic.Ax.Json.AbstractJsonElement.HasNext$I@R@Simatic.Ax.Json.AbstractJsonElement@this" to i8*), i8* bitcast (i1 (%Simatic.Ax.Json.JsonBoolean*, %Simatic.Ax.Json.JsonDocument*)* @"Simatic.Ax.Json.JsonBoolean.Serialize$I@R@Simatic.Ax.Json.JsonBoolean@this?I@V@REF_TO Simatic.Ax.Json.JsonDocument@doc" to i8*), i8* bitcast (i32 (%Simatic.Ax.Json.AbstractJsonElement*, %Simatic.Ax.Json.JsonDocument*, i8*)* @"Simatic.Ax.Json.AbstractJsonElement.SerializeHelper$I@R@Simatic.Ax.Json.AbstractJsonElement@this?I@V@REF_TO Simatic.Ax.Json.JsonDocument@doc?I@V@STRING@valueAsString" to i8*), i8* bitcast (%STRING.0 (%Simatic.Ax.Json.JsonBoolean*)* @"Simatic.Ax.Json.JsonBoolean.ToString$I@R@Simatic.Ax.Json.JsonBoolean@this" to i8*), i8* bitcast (%STRING.0 (%Simatic.Ax.Json.BaseJsonNumber*, i8*)* @"Simatic.Ax.Json.BaseJsonNumber.ToStringHelper$I@R@Simatic.Ax.Json.BaseJsonNumber@this?I@V@STRING@valueAsString" to i8*)] }
@"$Simatic.Ax.Json.IJsonElementMuteable_Simatic.Ax.Json.JsonString" = linkonce_odr hidden global %Simatic.Ax.Json.IJsonElementMuteable { i8* bitcast (%"$CD_Simatic.Ax.Json.JsonString"* @"$cd_Simatic.Ax.Json.JsonString" to i8*), [3 x i8*] [i8* bitcast (void (%Simatic.Ax.Json.IJsonElementMuteable*, %Simatic.Ax.Json.IJsonElement*)* @"$Simatic.Ax.Json.IJsonElementMuteable.AddElement_Simatic.Ax.Json.JsonString$I@V@REF_TO Simatic.Ax.Json.IJsonElementMuteable@this?I@V@REF_TO Simatic.Ax.Json.IJsonElement@elem" to i8*), i8* bitcast (%Simatic.Ax.Json.IJsonElementMuteable* (%Simatic.Ax.Json.IJsonElementMuteable*)* @"$Simatic.Ax.Json.IJsonElementMuteable.GetNext_Simatic.Ax.Json.JsonString$I@V@REF_TO Simatic.Ax.Json.IJsonElementMuteable@this" to i8*), i8* bitcast (i1 (%Simatic.Ax.Json.IJsonElementMuteable*)* @"$Simatic.Ax.Json.IJsonElementMuteable.HasNext_Simatic.Ax.Json.JsonString$I@V@REF_TO Simatic.Ax.Json.IJsonElementMuteable@this" to i8*)] }
@"$Simatic.Ax.Json.IJsonElement_Simatic.Ax.Json.JsonString" = linkonce_odr hidden global %Simatic.Ax.Json.IJsonElement { i8* bitcast (%"$CD_Simatic.Ax.Json.JsonString"* @"$cd_Simatic.Ax.Json.JsonString" to i8*), [2 x i8*] [i8* bitcast (i1 (%Simatic.Ax.Json.IJsonElement*, %Simatic.Ax.Json.JsonDocument*)* @"$Simatic.Ax.Json.IJsonElement.Serialize_Simatic.Ax.Json.JsonString$I@V@REF_TO Simatic.Ax.Json.IJsonElement@this?I@V@REF_TO Simatic.Ax.Json.JsonDocument@doc" to i8*), i8* bitcast (%STRING.0 (%Simatic.Ax.Json.IJsonElement*)* @"$Simatic.Ax.Json.IJsonElement.ToString_Simatic.Ax.Json.JsonString$I@V@REF_TO Simatic.Ax.Json.IJsonElement@this" to i8*)] }
@"$itf_table_Simatic.Ax.Json.JsonString" = linkonce_odr hidden global [2 x { i64, i64, i8* }] [{ i64, i64, i8* } { i64 ptrtoint (%Simatic.Ax.Json.IJsonElementMuteable** getelementptr ({ %Simatic.Ax.Json.AbstractJsonElement }, { %Simatic.Ax.Json.AbstractJsonElement }* null, i32 0, i32 0, i32 1) to i64), i64 -1600813877, i8* bitcast (%Simatic.Ax.Json.IJsonElementMuteable* @"$Simatic.Ax.Json.IJsonElementMuteable_Simatic.Ax.Json.JsonString" to i8*) }, { i64, i64, i8* } { i64 ptrtoint (%Simatic.Ax.Json.IJsonElement** getelementptr ({ %Simatic.Ax.Json.AbstractJsonElement }, { %Simatic.Ax.Json.AbstractJsonElement }* null, i32 0, i32 0, i32 2) to i64), i64 -274380306, i8* bitcast (%Simatic.Ax.Json.IJsonElement* @"$Simatic.Ax.Json.IJsonElement_Simatic.Ax.Json.JsonString" to i8*) }]
@"$cd_Simatic.Ax.Json.JsonString" = linkonce_odr hidden global %"$CD_Simatic.Ax.Json.JsonString" { i8* bitcast (%"$CD_Simatic.Ax.Json.AbstractJsonElement"* @"$cd_Simatic.Ax.Json.AbstractJsonElement" to i8*), i64 ptrtoint (%Simatic.Ax.Json.JsonString* getelementptr (%Simatic.Ax.Json.JsonString, %Simatic.Ax.Json.JsonString* null, i32 1) to i64), i16 2, [2 x { i64, i64, i8* }]* @"$itf_table_Simatic.Ax.Json.JsonString", [7 x i8*] [i8* bitcast (void (%Simatic.Ax.Json.AbstractJsonElement*, %Simatic.Ax.Json.IJsonElement*)* @"Simatic.Ax.Json.AbstractJsonElement.AddElement$I@R@Simatic.Ax.Json.AbstractJsonElement@this?I@V@REF_TO Simatic.Ax.Json.IJsonElement@elem" to i8*), i8* bitcast (%Simatic.Ax.Json.IJsonElementMuteable* (%Simatic.Ax.Json.AbstractJsonElement*)* @"Simatic.Ax.Json.AbstractJsonElement.GetNext$I@R@Simatic.Ax.Json.AbstractJsonElement@this" to i8*), i8* bitcast (i1 (%Simatic.Ax.Json.AbstractJsonElement*)* @"Simatic.Ax.Json.AbstractJsonElement.HasNext$I@R@Simatic.Ax.Json.AbstractJsonElement@this" to i8*), i8* bitcast (i1 (%Simatic.Ax.Json.JsonString*, %Simatic.Ax.Json.JsonDocument*)* @"Simatic.Ax.Json.JsonString.Serialize$I@R@Simatic.Ax.Json.JsonString@this?I@V@REF_TO Simatic.Ax.Json.JsonDocument@doc" to i8*), i8* bitcast (i32 (%Simatic.Ax.Json.AbstractJsonElement*, %Simatic.Ax.Json.JsonDocument*, i8*)* @"Simatic.Ax.Json.AbstractJsonElement.SerializeHelper$I@R@Simatic.Ax.Json.AbstractJsonElement@this?I@V@REF_TO Simatic.Ax.Json.JsonDocument@doc?I@V@STRING@valueAsString" to i8*), i8* bitcast (%STRING.0 (%Simatic.Ax.Json.JsonString*)* @"Simatic.Ax.Json.JsonString.ToString$I@R@Simatic.Ax.Json.JsonString@this" to i8*), i8* bitcast (%STRING.0 (%Simatic.Ax.Json.AbstractJsonElement*, i8*)* @"Simatic.Ax.Json.AbstractJsonElement.ToStringHelper$I@R@Simatic.Ax.Json.AbstractJsonElement@this?I@V@STRING@valueAsString" to i8*)] }
@"$Simatic.Ax.Json.IJsonElementMuteable_Simatic.Ax.Json.JsonDInt" = linkonce_odr hidden global %Simatic.Ax.Json.IJsonElementMuteable { i8* bitcast (%"$CD_Simatic.Ax.Json.JsonDInt"* @"$cd_Simatic.Ax.Json.JsonDInt" to i8*), [3 x i8*] [i8* bitcast (void (%Simatic.Ax.Json.IJsonElementMuteable*, %Simatic.Ax.Json.IJsonElement*)* @"$Simatic.Ax.Json.IJsonElementMuteable.AddElement_Simatic.Ax.Json.JsonDInt$I@V@REF_TO Simatic.Ax.Json.IJsonElementMuteable@this?I@V@REF_TO Simatic.Ax.Json.IJsonElement@elem" to i8*), i8* bitcast (%Simatic.Ax.Json.IJsonElementMuteable* (%Simatic.Ax.Json.IJsonElementMuteable*)* @"$Simatic.Ax.Json.IJsonElementMuteable.GetNext_Simatic.Ax.Json.JsonDInt$I@V@REF_TO Simatic.Ax.Json.IJsonElementMuteable@this" to i8*), i8* bitcast (i1 (%Simatic.Ax.Json.IJsonElementMuteable*)* @"$Simatic.Ax.Json.IJsonElementMuteable.HasNext_Simatic.Ax.Json.JsonDInt$I@V@REF_TO Simatic.Ax.Json.IJsonElementMuteable@this" to i8*)] }
@"$Simatic.Ax.Json.IJsonElement_Simatic.Ax.Json.JsonDInt" = linkonce_odr hidden global %Simatic.Ax.Json.IJsonElement { i8* bitcast (%"$CD_Simatic.Ax.Json.JsonDInt"* @"$cd_Simatic.Ax.Json.JsonDInt" to i8*), [2 x i8*] [i8* bitcast (i1 (%Simatic.Ax.Json.IJsonElement*, %Simatic.Ax.Json.JsonDocument*)* @"$Simatic.Ax.Json.IJsonElement.Serialize_Simatic.Ax.Json.JsonDInt$I@V@REF_TO Simatic.Ax.Json.IJsonElement@this?I@V@REF_TO Simatic.Ax.Json.JsonDocument@doc" to i8*), i8* bitcast (%STRING.0 (%Simatic.Ax.Json.IJsonElement*)* @"$Simatic.Ax.Json.IJsonElement.ToString_Simatic.Ax.Json.JsonDInt$I@V@REF_TO Simatic.Ax.Json.IJsonElement@this" to i8*)] }
@"$itf_table_Simatic.Ax.Json.JsonDInt" = linkonce_odr hidden global [2 x { i64, i64, i8* }] [{ i64, i64, i8* } { i64 ptrtoint (%Simatic.Ax.Json.IJsonElementMuteable** getelementptr ({ %Simatic.Ax.Json.BaseJsonNumber }, { %Simatic.Ax.Json.BaseJsonNumber }* null, i32 0, i32 0, i32 0, i32 1) to i64), i64 -1600813877, i8* bitcast (%Simatic.Ax.Json.IJsonElementMuteable* @"$Simatic.Ax.Json.IJsonElementMuteable_Simatic.Ax.Json.JsonDInt" to i8*) }, { i64, i64, i8* } { i64 ptrtoint (%Simatic.Ax.Json.IJsonElement** getelementptr ({ %Simatic.Ax.Json.BaseJsonNumber }, { %Simatic.Ax.Json.BaseJsonNumber }* null, i32 0, i32 0, i32 0, i32 2) to i64), i64 -274380306, i8* bitcast (%Simatic.Ax.Json.IJsonElement* @"$Simatic.Ax.Json.IJsonElement_Simatic.Ax.Json.JsonDInt" to i8*) }]
@"$cd_Simatic.Ax.Json.JsonDInt" = linkonce_odr hidden global %"$CD_Simatic.Ax.Json.JsonDInt" { i8* bitcast (%"$CD_Simatic.Ax.Json.BaseJsonNumber"* @"$cd_Simatic.Ax.Json.BaseJsonNumber" to i8*), i64 ptrtoint (%Simatic.Ax.Json.JsonDInt* getelementptr (%Simatic.Ax.Json.JsonDInt, %Simatic.Ax.Json.JsonDInt* null, i32 1) to i64), i16 2, [2 x { i64, i64, i8* }]* @"$itf_table_Simatic.Ax.Json.JsonDInt", [7 x i8*] [i8* bitcast (void (%Simatic.Ax.Json.AbstractJsonElement*, %Simatic.Ax.Json.IJsonElement*)* @"Simatic.Ax.Json.AbstractJsonElement.AddElement$I@R@Simatic.Ax.Json.AbstractJsonElement@this?I@V@REF_TO Simatic.Ax.Json.IJsonElement@elem" to i8*), i8* bitcast (%Simatic.Ax.Json.IJsonElementMuteable* (%Simatic.Ax.Json.AbstractJsonElement*)* @"Simatic.Ax.Json.AbstractJsonElement.GetNext$I@R@Simatic.Ax.Json.AbstractJsonElement@this" to i8*), i8* bitcast (i1 (%Simatic.Ax.Json.AbstractJsonElement*)* @"Simatic.Ax.Json.AbstractJsonElement.HasNext$I@R@Simatic.Ax.Json.AbstractJsonElement@this" to i8*), i8* bitcast (i1 (%Simatic.Ax.Json.BaseJsonNumber*, %Simatic.Ax.Json.JsonDocument*)* @"Simatic.Ax.Json.BaseJsonNumber.Serialize$I@R@Simatic.Ax.Json.BaseJsonNumber@this?I@V@REF_TO Simatic.Ax.Json.JsonDocument@doc" to i8*), i8* bitcast (i32 (%Simatic.Ax.Json.AbstractJsonElement*, %Simatic.Ax.Json.JsonDocument*, i8*)* @"Simatic.Ax.Json.AbstractJsonElement.SerializeHelper$I@R@Simatic.Ax.Json.AbstractJsonElement@this?I@V@REF_TO Simatic.Ax.Json.JsonDocument@doc?I@V@STRING@valueAsString" to i8*), i8* bitcast (%STRING.0 (%Simatic.Ax.Json.JsonDInt*)* @"Simatic.Ax.Json.JsonDInt.ToString$I@R@Simatic.Ax.Json.JsonDInt@this" to i8*), i8* bitcast (%STRING.0 (%Simatic.Ax.Json.BaseJsonNumber*, i8*)* @"Simatic.Ax.Json.BaseJsonNumber.ToStringHelper$I@R@Simatic.Ax.Json.BaseJsonNumber@this?I@V@STRING@valueAsString" to i8*)] }
@"$Simatic.Ax.Json.IJsonElementMuteable_Simatic.Ax.Json.JsonInt" = linkonce_odr hidden global %Simatic.Ax.Json.IJsonElementMuteable { i8* bitcast (%"$CD_Simatic.Ax.Json.JsonInt"* @"$cd_Simatic.Ax.Json.JsonInt" to i8*), [3 x i8*] [i8* bitcast (void (%Simatic.Ax.Json.IJsonElementMuteable*, %Simatic.Ax.Json.IJsonElement*)* @"$Simatic.Ax.Json.IJsonElementMuteable.AddElement_Simatic.Ax.Json.JsonInt$I@V@REF_TO Simatic.Ax.Json.IJsonElementMuteable@this?I@V@REF_TO Simatic.Ax.Json.IJsonElement@elem" to i8*), i8* bitcast (%Simatic.Ax.Json.IJsonElementMuteable* (%Simatic.Ax.Json.IJsonElementMuteable*)* @"$Simatic.Ax.Json.IJsonElementMuteable.GetNext_Simatic.Ax.Json.JsonInt$I@V@REF_TO Simatic.Ax.Json.IJsonElementMuteable@this" to i8*), i8* bitcast (i1 (%Simatic.Ax.Json.IJsonElementMuteable*)* @"$Simatic.Ax.Json.IJsonElementMuteable.HasNext_Simatic.Ax.Json.JsonInt$I@V@REF_TO Simatic.Ax.Json.IJsonElementMuteable@this" to i8*)] }
@"$Simatic.Ax.Json.IJsonElement_Simatic.Ax.Json.JsonInt" = linkonce_odr hidden global %Simatic.Ax.Json.IJsonElement { i8* bitcast (%"$CD_Simatic.Ax.Json.JsonInt"* @"$cd_Simatic.Ax.Json.JsonInt" to i8*), [2 x i8*] [i8* bitcast (i1 (%Simatic.Ax.Json.IJsonElement*, %Simatic.Ax.Json.JsonDocument*)* @"$Simatic.Ax.Json.IJsonElement.Serialize_Simatic.Ax.Json.JsonInt$I@V@REF_TO Simatic.Ax.Json.IJsonElement@this?I@V@REF_TO Simatic.Ax.Json.JsonDocument@doc" to i8*), i8* bitcast (%STRING.0 (%Simatic.Ax.Json.IJsonElement*)* @"$Simatic.Ax.Json.IJsonElement.ToString_Simatic.Ax.Json.JsonInt$I@V@REF_TO Simatic.Ax.Json.IJsonElement@this" to i8*)] }
@"$itf_table_Simatic.Ax.Json.JsonInt" = linkonce_odr hidden global [2 x { i64, i64, i8* }] [{ i64, i64, i8* } { i64 ptrtoint (%Simatic.Ax.Json.IJsonElementMuteable** getelementptr ({ %Simatic.Ax.Json.BaseJsonNumber }, { %Simatic.Ax.Json.BaseJsonNumber }* null, i32 0, i32 0, i32 0, i32 1) to i64), i64 -1600813877, i8* bitcast (%Simatic.Ax.Json.IJsonElementMuteable* @"$Simatic.Ax.Json.IJsonElementMuteable_Simatic.Ax.Json.JsonInt" to i8*) }, { i64, i64, i8* } { i64 ptrtoint (%Simatic.Ax.Json.IJsonElement** getelementptr ({ %Simatic.Ax.Json.BaseJsonNumber }, { %Simatic.Ax.Json.BaseJsonNumber }* null, i32 0, i32 0, i32 0, i32 2) to i64), i64 -274380306, i8* bitcast (%Simatic.Ax.Json.IJsonElement* @"$Simatic.Ax.Json.IJsonElement_Simatic.Ax.Json.JsonInt" to i8*) }]
@"$cd_Simatic.Ax.Json.JsonInt" = linkonce_odr hidden global %"$CD_Simatic.Ax.Json.JsonInt" { i8* bitcast (%"$CD_Simatic.Ax.Json.BaseJsonNumber"* @"$cd_Simatic.Ax.Json.BaseJsonNumber" to i8*), i64 ptrtoint (%Simatic.Ax.Json.JsonInt* getelementptr (%Simatic.Ax.Json.JsonInt, %Simatic.Ax.Json.JsonInt* null, i32 1) to i64), i16 2, [2 x { i64, i64, i8* }]* @"$itf_table_Simatic.Ax.Json.JsonInt", [7 x i8*] [i8* bitcast (void (%Simatic.Ax.Json.AbstractJsonElement*, %Simatic.Ax.Json.IJsonElement*)* @"Simatic.Ax.Json.AbstractJsonElement.AddElement$I@R@Simatic.Ax.Json.AbstractJsonElement@this?I@V@REF_TO Simatic.Ax.Json.IJsonElement@elem" to i8*), i8* bitcast (%Simatic.Ax.Json.IJsonElementMuteable* (%Simatic.Ax.Json.AbstractJsonElement*)* @"Simatic.Ax.Json.AbstractJsonElement.GetNext$I@R@Simatic.Ax.Json.AbstractJsonElement@this" to i8*), i8* bitcast (i1 (%Simatic.Ax.Json.AbstractJsonElement*)* @"Simatic.Ax.Json.AbstractJsonElement.HasNext$I@R@Simatic.Ax.Json.AbstractJsonElement@this" to i8*), i8* bitcast (i1 (%Simatic.Ax.Json.BaseJsonNumber*, %Simatic.Ax.Json.JsonDocument*)* @"Simatic.Ax.Json.BaseJsonNumber.Serialize$I@R@Simatic.Ax.Json.BaseJsonNumber@this?I@V@REF_TO Simatic.Ax.Json.JsonDocument@doc" to i8*), i8* bitcast (i32 (%Simatic.Ax.Json.AbstractJsonElement*, %Simatic.Ax.Json.JsonDocument*, i8*)* @"Simatic.Ax.Json.AbstractJsonElement.SerializeHelper$I@R@Simatic.Ax.Json.AbstractJsonElement@this?I@V@REF_TO Simatic.Ax.Json.JsonDocument@doc?I@V@STRING@valueAsString" to i8*), i8* bitcast (%STRING.0 (%Simatic.Ax.Json.JsonInt*)* @"Simatic.Ax.Json.JsonInt.ToString$I@R@Simatic.Ax.Json.JsonInt@this" to i8*), i8* bitcast (%STRING.0 (%Simatic.Ax.Json.BaseJsonNumber*, i8*)* @"Simatic.Ax.Json.BaseJsonNumber.ToStringHelper$I@R@Simatic.Ax.Json.BaseJsonNumber@this?I@V@STRING@valueAsString" to i8*)] }
@"$Simatic.Ax.Json.IJsonElementMuteable_Simatic.Ax.Json.JsonLInt" = linkonce_odr hidden global %Simatic.Ax.Json.IJsonElementMuteable { i8* bitcast (%"$CD_Simatic.Ax.Json.JsonLInt"* @"$cd_Simatic.Ax.Json.JsonLInt" to i8*), [3 x i8*] [i8* bitcast (void (%Simatic.Ax.Json.IJsonElementMuteable*, %Simatic.Ax.Json.IJsonElement*)* @"$Simatic.Ax.Json.IJsonElementMuteable.AddElement_Simatic.Ax.Json.JsonLInt$I@V@REF_TO Simatic.Ax.Json.IJsonElementMuteable@this?I@V@REF_TO Simatic.Ax.Json.IJsonElement@elem" to i8*), i8* bitcast (%Simatic.Ax.Json.IJsonElementMuteable* (%Simatic.Ax.Json.IJsonElementMuteable*)* @"$Simatic.Ax.Json.IJsonElementMuteable.GetNext_Simatic.Ax.Json.JsonLInt$I@V@REF_TO Simatic.Ax.Json.IJsonElementMuteable@this" to i8*), i8* bitcast (i1 (%Simatic.Ax.Json.IJsonElementMuteable*)* @"$Simatic.Ax.Json.IJsonElementMuteable.HasNext_Simatic.Ax.Json.JsonLInt$I@V@REF_TO Simatic.Ax.Json.IJsonElementMuteable@this" to i8*)] }
@"$Simatic.Ax.Json.IJsonElement_Simatic.Ax.Json.JsonLInt" = linkonce_odr hidden global %Simatic.Ax.Json.IJsonElement { i8* bitcast (%"$CD_Simatic.Ax.Json.JsonLInt"* @"$cd_Simatic.Ax.Json.JsonLInt" to i8*), [2 x i8*] [i8* bitcast (i1 (%Simatic.Ax.Json.IJsonElement*, %Simatic.Ax.Json.JsonDocument*)* @"$Simatic.Ax.Json.IJsonElement.Serialize_Simatic.Ax.Json.JsonLInt$I@V@REF_TO Simatic.Ax.Json.IJsonElement@this?I@V@REF_TO Simatic.Ax.Json.JsonDocument@doc" to i8*), i8* bitcast (%STRING.0 (%Simatic.Ax.Json.IJsonElement*)* @"$Simatic.Ax.Json.IJsonElement.ToString_Simatic.Ax.Json.JsonLInt$I@V@REF_TO Simatic.Ax.Json.IJsonElement@this" to i8*)] }
@"$itf_table_Simatic.Ax.Json.JsonLInt" = linkonce_odr hidden global [2 x { i64, i64, i8* }] [{ i64, i64, i8* } { i64 ptrtoint (%Simatic.Ax.Json.IJsonElementMuteable** getelementptr ({ %Simatic.Ax.Json.BaseJsonNumber }, { %Simatic.Ax.Json.BaseJsonNumber }* null, i32 0, i32 0, i32 0, i32 1) to i64), i64 -1600813877, i8* bitcast (%Simatic.Ax.Json.IJsonElementMuteable* @"$Simatic.Ax.Json.IJsonElementMuteable_Simatic.Ax.Json.JsonLInt" to i8*) }, { i64, i64, i8* } { i64 ptrtoint (%Simatic.Ax.Json.IJsonElement** getelementptr ({ %Simatic.Ax.Json.BaseJsonNumber }, { %Simatic.Ax.Json.BaseJsonNumber }* null, i32 0, i32 0, i32 0, i32 2) to i64), i64 -274380306, i8* bitcast (%Simatic.Ax.Json.IJsonElement* @"$Simatic.Ax.Json.IJsonElement_Simatic.Ax.Json.JsonLInt" to i8*) }]
@"$cd_Simatic.Ax.Json.JsonLInt" = linkonce_odr hidden global %"$CD_Simatic.Ax.Json.JsonLInt" { i8* bitcast (%"$CD_Simatic.Ax.Json.BaseJsonNumber"* @"$cd_Simatic.Ax.Json.BaseJsonNumber" to i8*), i64 ptrtoint (%Simatic.Ax.Json.JsonLInt* getelementptr (%Simatic.Ax.Json.JsonLInt, %Simatic.Ax.Json.JsonLInt* null, i32 1) to i64), i16 2, [2 x { i64, i64, i8* }]* @"$itf_table_Simatic.Ax.Json.JsonLInt", [7 x i8*] [i8* bitcast (void (%Simatic.Ax.Json.AbstractJsonElement*, %Simatic.Ax.Json.IJsonElement*)* @"Simatic.Ax.Json.AbstractJsonElement.AddElement$I@R@Simatic.Ax.Json.AbstractJsonElement@this?I@V@REF_TO Simatic.Ax.Json.IJsonElement@elem" to i8*), i8* bitcast (%Simatic.Ax.Json.IJsonElementMuteable* (%Simatic.Ax.Json.AbstractJsonElement*)* @"Simatic.Ax.Json.AbstractJsonElement.GetNext$I@R@Simatic.Ax.Json.AbstractJsonElement@this" to i8*), i8* bitcast (i1 (%Simatic.Ax.Json.AbstractJsonElement*)* @"Simatic.Ax.Json.AbstractJsonElement.HasNext$I@R@Simatic.Ax.Json.AbstractJsonElement@this" to i8*), i8* bitcast (i1 (%Simatic.Ax.Json.BaseJsonNumber*, %Simatic.Ax.Json.JsonDocument*)* @"Simatic.Ax.Json.BaseJsonNumber.Serialize$I@R@Simatic.Ax.Json.BaseJsonNumber@this?I@V@REF_TO Simatic.Ax.Json.JsonDocument@doc" to i8*), i8* bitcast (i32 (%Simatic.Ax.Json.AbstractJsonElement*, %Simatic.Ax.Json.JsonDocument*, i8*)* @"Simatic.Ax.Json.AbstractJsonElement.SerializeHelper$I@R@Simatic.Ax.Json.AbstractJsonElement@this?I@V@REF_TO Simatic.Ax.Json.JsonDocument@doc?I@V@STRING@valueAsString" to i8*), i8* bitcast (%STRING.0 (%Simatic.Ax.Json.JsonLInt*)* @"Simatic.Ax.Json.JsonLInt.ToString$I@R@Simatic.Ax.Json.JsonLInt@this" to i8*), i8* bitcast (%STRING.0 (%Simatic.Ax.Json.BaseJsonNumber*, i8*)* @"Simatic.Ax.Json.BaseJsonNumber.ToStringHelper$I@R@Simatic.Ax.Json.BaseJsonNumber@this?I@V@STRING@valueAsString" to i8*)] }
@"$Simatic.Ax.Json.IJsonElementMuteable_Simatic.Ax.Json.JsonUSInt" = linkonce_odr hidden global %Simatic.Ax.Json.IJsonElementMuteable { i8* bitcast (%"$CD_Simatic.Ax.Json.JsonUSInt"* @"$cd_Simatic.Ax.Json.JsonUSInt" to i8*), [3 x i8*] [i8* bitcast (void (%Simatic.Ax.Json.IJsonElementMuteable*, %Simatic.Ax.Json.IJsonElement*)* @"$Simatic.Ax.Json.IJsonElementMuteable.AddElement_Simatic.Ax.Json.JsonUSInt$I@V@REF_TO Simatic.Ax.Json.IJsonElementMuteable@this?I@V@REF_TO Simatic.Ax.Json.IJsonElement@elem" to i8*), i8* bitcast (%Simatic.Ax.Json.IJsonElementMuteable* (%Simatic.Ax.Json.IJsonElementMuteable*)* @"$Simatic.Ax.Json.IJsonElementMuteable.GetNext_Simatic.Ax.Json.JsonUSInt$I@V@REF_TO Simatic.Ax.Json.IJsonElementMuteable@this" to i8*), i8* bitcast (i1 (%Simatic.Ax.Json.IJsonElementMuteable*)* @"$Simatic.Ax.Json.IJsonElementMuteable.HasNext_Simatic.Ax.Json.JsonUSInt$I@V@REF_TO Simatic.Ax.Json.IJsonElementMuteable@this" to i8*)] }
@"$Simatic.Ax.Json.IJsonElement_Simatic.Ax.Json.JsonUSInt" = linkonce_odr hidden global %Simatic.Ax.Json.IJsonElement { i8* bitcast (%"$CD_Simatic.Ax.Json.JsonUSInt"* @"$cd_Simatic.Ax.Json.JsonUSInt" to i8*), [2 x i8*] [i8* bitcast (i1 (%Simatic.Ax.Json.IJsonElement*, %Simatic.Ax.Json.JsonDocument*)* @"$Simatic.Ax.Json.IJsonElement.Serialize_Simatic.Ax.Json.JsonUSInt$I@V@REF_TO Simatic.Ax.Json.IJsonElement@this?I@V@REF_TO Simatic.Ax.Json.JsonDocument@doc" to i8*), i8* bitcast (%STRING.0 (%Simatic.Ax.Json.IJsonElement*)* @"$Simatic.Ax.Json.IJsonElement.ToString_Simatic.Ax.Json.JsonUSInt$I@V@REF_TO Simatic.Ax.Json.IJsonElement@this" to i8*)] }
@"$itf_table_Simatic.Ax.Json.JsonUSInt" = linkonce_odr hidden global [2 x { i64, i64, i8* }] [{ i64, i64, i8* } { i64 ptrtoint (%Simatic.Ax.Json.IJsonElementMuteable** getelementptr ({ %Simatic.Ax.Json.BaseJsonNumber }, { %Simatic.Ax.Json.BaseJsonNumber }* null, i32 0, i32 0, i32 0, i32 1) to i64), i64 -1600813877, i8* bitcast (%Simatic.Ax.Json.IJsonElementMuteable* @"$Simatic.Ax.Json.IJsonElementMuteable_Simatic.Ax.Json.JsonUSInt" to i8*) }, { i64, i64, i8* } { i64 ptrtoint (%Simatic.Ax.Json.IJsonElement** getelementptr ({ %Simatic.Ax.Json.BaseJsonNumber }, { %Simatic.Ax.Json.BaseJsonNumber }* null, i32 0, i32 0, i32 0, i32 2) to i64), i64 -274380306, i8* bitcast (%Simatic.Ax.Json.IJsonElement* @"$Simatic.Ax.Json.IJsonElement_Simatic.Ax.Json.JsonUSInt" to i8*) }]
@"$cd_Simatic.Ax.Json.JsonUSInt" = linkonce_odr hidden global %"$CD_Simatic.Ax.Json.JsonUSInt" { i8* bitcast (%"$CD_Simatic.Ax.Json.BaseJsonNumber"* @"$cd_Simatic.Ax.Json.BaseJsonNumber" to i8*), i64 ptrtoint (%Simatic.Ax.Json.JsonUSInt* getelementptr (%Simatic.Ax.Json.JsonUSInt, %Simatic.Ax.Json.JsonUSInt* null, i32 1) to i64), i16 2, [2 x { i64, i64, i8* }]* @"$itf_table_Simatic.Ax.Json.JsonUSInt", [7 x i8*] [i8* bitcast (void (%Simatic.Ax.Json.AbstractJsonElement*, %Simatic.Ax.Json.IJsonElement*)* @"Simatic.Ax.Json.AbstractJsonElement.AddElement$I@R@Simatic.Ax.Json.AbstractJsonElement@this?I@V@REF_TO Simatic.Ax.Json.IJsonElement@elem" to i8*), i8* bitcast (%Simatic.Ax.Json.IJsonElementMuteable* (%Simatic.Ax.Json.AbstractJsonElement*)* @"Simatic.Ax.Json.AbstractJsonElement.GetNext$I@R@Simatic.Ax.Json.AbstractJsonElement@this" to i8*), i8* bitcast (i1 (%Simatic.Ax.Json.AbstractJsonElement*)* @"Simatic.Ax.Json.AbstractJsonElement.HasNext$I@R@Simatic.Ax.Json.AbstractJsonElement@this" to i8*), i8* bitcast (i1 (%Simatic.Ax.Json.BaseJsonNumber*, %Simatic.Ax.Json.JsonDocument*)* @"Simatic.Ax.Json.BaseJsonNumber.Serialize$I@R@Simatic.Ax.Json.BaseJsonNumber@this?I@V@REF_TO Simatic.Ax.Json.JsonDocument@doc" to i8*), i8* bitcast (i32 (%Simatic.Ax.Json.AbstractJsonElement*, %Simatic.Ax.Json.JsonDocument*, i8*)* @"Simatic.Ax.Json.AbstractJsonElement.SerializeHelper$I@R@Simatic.Ax.Json.AbstractJsonElement@this?I@V@REF_TO Simatic.Ax.Json.JsonDocument@doc?I@V@STRING@valueAsString" to i8*), i8* bitcast (%STRING.0 (%Simatic.Ax.Json.JsonUSInt*)* @"Simatic.Ax.Json.JsonUSInt.ToString$I@R@Simatic.Ax.Json.JsonUSInt@this" to i8*), i8* bitcast (%STRING.0 (%Simatic.Ax.Json.BaseJsonNumber*, i8*)* @"Simatic.Ax.Json.BaseJsonNumber.ToStringHelper$I@R@Simatic.Ax.Json.BaseJsonNumber@this?I@V@STRING@valueAsString" to i8*)] }
@"$Simatic.Ax.Json.IJsonElementMuteable_Simatic.Ax.Json.JsonSInt" = linkonce_odr hidden global %Simatic.Ax.Json.IJsonElementMuteable { i8* bitcast (%"$CD_Simatic.Ax.Json.JsonSInt"* @"$cd_Simatic.Ax.Json.JsonSInt" to i8*), [3 x i8*] [i8* bitcast (void (%Simatic.Ax.Json.IJsonElementMuteable*, %Simatic.Ax.Json.IJsonElement*)* @"$Simatic.Ax.Json.IJsonElementMuteable.AddElement_Simatic.Ax.Json.JsonSInt$I@V@REF_TO Simatic.Ax.Json.IJsonElementMuteable@this?I@V@REF_TO Simatic.Ax.Json.IJsonElement@elem" to i8*), i8* bitcast (%Simatic.Ax.Json.IJsonElementMuteable* (%Simatic.Ax.Json.IJsonElementMuteable*)* @"$Simatic.Ax.Json.IJsonElementMuteable.GetNext_Simatic.Ax.Json.JsonSInt$I@V@REF_TO Simatic.Ax.Json.IJsonElementMuteable@this" to i8*), i8* bitcast (i1 (%Simatic.Ax.Json.IJsonElementMuteable*)* @"$Simatic.Ax.Json.IJsonElementMuteable.HasNext_Simatic.Ax.Json.JsonSInt$I@V@REF_TO Simatic.Ax.Json.IJsonElementMuteable@this" to i8*)] }
@"$Simatic.Ax.Json.IJsonElement_Simatic.Ax.Json.JsonSInt" = linkonce_odr hidden global %Simatic.Ax.Json.IJsonElement { i8* bitcast (%"$CD_Simatic.Ax.Json.JsonSInt"* @"$cd_Simatic.Ax.Json.JsonSInt" to i8*), [2 x i8*] [i8* bitcast (i1 (%Simatic.Ax.Json.IJsonElement*, %Simatic.Ax.Json.JsonDocument*)* @"$Simatic.Ax.Json.IJsonElement.Serialize_Simatic.Ax.Json.JsonSInt$I@V@REF_TO Simatic.Ax.Json.IJsonElement@this?I@V@REF_TO Simatic.Ax.Json.JsonDocument@doc" to i8*), i8* bitcast (%STRING.0 (%Simatic.Ax.Json.IJsonElement*)* @"$Simatic.Ax.Json.IJsonElement.ToString_Simatic.Ax.Json.JsonSInt$I@V@REF_TO Simatic.Ax.Json.IJsonElement@this" to i8*)] }
@"$itf_table_Simatic.Ax.Json.JsonSInt" = linkonce_odr hidden global [2 x { i64, i64, i8* }] [{ i64, i64, i8* } { i64 ptrtoint (%Simatic.Ax.Json.IJsonElementMuteable** getelementptr ({ %Simatic.Ax.Json.BaseJsonNumber }, { %Simatic.Ax.Json.BaseJsonNumber }* null, i32 0, i32 0, i32 0, i32 1) to i64), i64 -1600813877, i8* bitcast (%Simatic.Ax.Json.IJsonElementMuteable* @"$Simatic.Ax.Json.IJsonElementMuteable_Simatic.Ax.Json.JsonSInt" to i8*) }, { i64, i64, i8* } { i64 ptrtoint (%Simatic.Ax.Json.IJsonElement** getelementptr ({ %Simatic.Ax.Json.BaseJsonNumber }, { %Simatic.Ax.Json.BaseJsonNumber }* null, i32 0, i32 0, i32 0, i32 2) to i64), i64 -274380306, i8* bitcast (%Simatic.Ax.Json.IJsonElement* @"$Simatic.Ax.Json.IJsonElement_Simatic.Ax.Json.JsonSInt" to i8*) }]
@"$cd_Simatic.Ax.Json.JsonSInt" = linkonce_odr hidden global %"$CD_Simatic.Ax.Json.JsonSInt" { i8* bitcast (%"$CD_Simatic.Ax.Json.BaseJsonNumber"* @"$cd_Simatic.Ax.Json.BaseJsonNumber" to i8*), i64 ptrtoint (%Simatic.Ax.Json.JsonSInt* getelementptr (%Simatic.Ax.Json.JsonSInt, %Simatic.Ax.Json.JsonSInt* null, i32 1) to i64), i16 2, [2 x { i64, i64, i8* }]* @"$itf_table_Simatic.Ax.Json.JsonSInt", [7 x i8*] [i8* bitcast (void (%Simatic.Ax.Json.AbstractJsonElement*, %Simatic.Ax.Json.IJsonElement*)* @"Simatic.Ax.Json.AbstractJsonElement.AddElement$I@R@Simatic.Ax.Json.AbstractJsonElement@this?I@V@REF_TO Simatic.Ax.Json.IJsonElement@elem" to i8*), i8* bitcast (%Simatic.Ax.Json.IJsonElementMuteable* (%Simatic.Ax.Json.AbstractJsonElement*)* @"Simatic.Ax.Json.AbstractJsonElement.GetNext$I@R@Simatic.Ax.Json.AbstractJsonElement@this" to i8*), i8* bitcast (i1 (%Simatic.Ax.Json.AbstractJsonElement*)* @"Simatic.Ax.Json.AbstractJsonElement.HasNext$I@R@Simatic.Ax.Json.AbstractJsonElement@this" to i8*), i8* bitcast (i1 (%Simatic.Ax.Json.BaseJsonNumber*, %Simatic.Ax.Json.JsonDocument*)* @"Simatic.Ax.Json.BaseJsonNumber.Serialize$I@R@Simatic.Ax.Json.BaseJsonNumber@this?I@V@REF_TO Simatic.Ax.Json.JsonDocument@doc" to i8*), i8* bitcast (i32 (%Simatic.Ax.Json.AbstractJsonElement*, %Simatic.Ax.Json.JsonDocument*, i8*)* @"Simatic.Ax.Json.AbstractJsonElement.SerializeHelper$I@R@Simatic.Ax.Json.AbstractJsonElement@this?I@V@REF_TO Simatic.Ax.Json.JsonDocument@doc?I@V@STRING@valueAsString" to i8*), i8* bitcast (%STRING.0 (%Simatic.Ax.Json.JsonSInt*)* @"Simatic.Ax.Json.JsonSInt.ToString$I@R@Simatic.Ax.Json.JsonSInt@this" to i8*), i8* bitcast (%STRING.0 (%Simatic.Ax.Json.BaseJsonNumber*, i8*)* @"Simatic.Ax.Json.BaseJsonNumber.ToStringHelper$I@R@Simatic.Ax.Json.BaseJsonNumber@this?I@V@STRING@valueAsString" to i8*)] }
@"$itf_table_Simatic.Ax.Json.DeserializedObject" = linkonce_odr hidden global [0 x { i64, i64, i8* }] zeroinitializer
@"$cd_Simatic.Ax.Json.DeserializedObject" = linkonce_odr hidden global %"$CD_Simatic.Ax.Json.DeserializedObject" { i8* null, i64 ptrtoint (%Simatic.Ax.Json.DeserializedObject* getelementptr (%Simatic.Ax.Json.DeserializedObject, %Simatic.Ax.Json.DeserializedObject* null, i32 1) to i64), i16 0, [0 x { i64, i64, i8* }]* @"$itf_table_Simatic.Ax.Json.DeserializedObject", [0 x i8*] zeroinitializer }
@"$Simatic.Ax.Json.IJsonElementMuteable_Simatic.Ax.Json.JsonObject" = linkonce_odr hidden global %Simatic.Ax.Json.IJsonElementMuteable { i8* bitcast (%"$CD_Simatic.Ax.Json.JsonObject"* @"$cd_Simatic.Ax.Json.JsonObject" to i8*), [3 x i8*] [i8* bitcast (void (%Simatic.Ax.Json.IJsonElementMuteable*, %Simatic.Ax.Json.IJsonElement*)* @"$Simatic.Ax.Json.IJsonElementMuteable.AddElement_Simatic.Ax.Json.JsonObject$I@V@REF_TO Simatic.Ax.Json.IJsonElementMuteable@this?I@V@REF_TO Simatic.Ax.Json.IJsonElement@elem" to i8*), i8* bitcast (%Simatic.Ax.Json.IJsonElementMuteable* (%Simatic.Ax.Json.IJsonElementMuteable*)* @"$Simatic.Ax.Json.IJsonElementMuteable.GetNext_Simatic.Ax.Json.JsonObject$I@V@REF_TO Simatic.Ax.Json.IJsonElementMuteable@this" to i8*), i8* bitcast (i1 (%Simatic.Ax.Json.IJsonElementMuteable*)* @"$Simatic.Ax.Json.IJsonElementMuteable.HasNext_Simatic.Ax.Json.JsonObject$I@V@REF_TO Simatic.Ax.Json.IJsonElementMuteable@this" to i8*)] }
@"$Simatic.Ax.Json.IJsonElement_Simatic.Ax.Json.JsonObject" = linkonce_odr hidden global %Simatic.Ax.Json.IJsonElement { i8* bitcast (%"$CD_Simatic.Ax.Json.JsonObject"* @"$cd_Simatic.Ax.Json.JsonObject" to i8*), [2 x i8*] [i8* bitcast (i1 (%Simatic.Ax.Json.IJsonElement*, %Simatic.Ax.Json.JsonDocument*)* @"$Simatic.Ax.Json.IJsonElement.Serialize_Simatic.Ax.Json.JsonObject$I@V@REF_TO Simatic.Ax.Json.IJsonElement@this?I@V@REF_TO Simatic.Ax.Json.JsonDocument@doc" to i8*), i8* bitcast (%STRING.0 (%Simatic.Ax.Json.IJsonElement*)* @"$Simatic.Ax.Json.IJsonElement.ToString_Simatic.Ax.Json.JsonObject$I@V@REF_TO Simatic.Ax.Json.IJsonElement@this" to i8*)] }
@"$itf_table_Simatic.Ax.Json.JsonObject" = linkonce_odr hidden global [2 x { i64, i64, i8* }] [{ i64, i64, i8* } { i64 ptrtoint (%Simatic.Ax.Json.IJsonElementMuteable** getelementptr ({ %Simatic.Ax.Json.AbstractJsonElement }, { %Simatic.Ax.Json.AbstractJsonElement }* null, i32 0, i32 0, i32 1) to i64), i64 -1600813877, i8* bitcast (%Simatic.Ax.Json.IJsonElementMuteable* @"$Simatic.Ax.Json.IJsonElementMuteable_Simatic.Ax.Json.JsonObject" to i8*) }, { i64, i64, i8* } { i64 ptrtoint (%Simatic.Ax.Json.IJsonElement** getelementptr ({ %Simatic.Ax.Json.AbstractJsonElement }, { %Simatic.Ax.Json.AbstractJsonElement }* null, i32 0, i32 0, i32 2) to i64), i64 -274380306, i8* bitcast (%Simatic.Ax.Json.IJsonElement* @"$Simatic.Ax.Json.IJsonElement_Simatic.Ax.Json.JsonObject" to i8*) }]
@"$cd_Simatic.Ax.Json.JsonObject" = linkonce_odr hidden global %"$CD_Simatic.Ax.Json.JsonObject" { i8* bitcast (%"$CD_Simatic.Ax.Json.AbstractJsonElement"* @"$cd_Simatic.Ax.Json.AbstractJsonElement" to i8*), i64 ptrtoint (%Simatic.Ax.Json.JsonObject* getelementptr (%Simatic.Ax.Json.JsonObject, %Simatic.Ax.Json.JsonObject* null, i32 1) to i64), i16 2, [2 x { i64, i64, i8* }]* @"$itf_table_Simatic.Ax.Json.JsonObject", [7 x i8*] [i8* bitcast (void (%Simatic.Ax.Json.JsonObject*, %Simatic.Ax.Json.IJsonElement*)* @"Simatic.Ax.Json.JsonObject.AddElement$I@R@Simatic.Ax.Json.JsonObject@this?I@V@REF_TO Simatic.Ax.Json.IJsonElement@elem" to i8*), i8* bitcast (%Simatic.Ax.Json.IJsonElementMuteable* (%Simatic.Ax.Json.AbstractJsonElement*)* @"Simatic.Ax.Json.AbstractJsonElement.GetNext$I@R@Simatic.Ax.Json.AbstractJsonElement@this" to i8*), i8* bitcast (i1 (%Simatic.Ax.Json.AbstractJsonElement*)* @"Simatic.Ax.Json.AbstractJsonElement.HasNext$I@R@Simatic.Ax.Json.AbstractJsonElement@this" to i8*), i8* bitcast (i1 (%Simatic.Ax.Json.JsonObject*, %Simatic.Ax.Json.JsonDocument*)* @"Simatic.Ax.Json.JsonObject.Serialize$I@R@Simatic.Ax.Json.JsonObject@this?I@V@REF_TO Simatic.Ax.Json.JsonDocument@doc" to i8*), i8* bitcast (i32 (%Simatic.Ax.Json.AbstractJsonElement*, %Simatic.Ax.Json.JsonDocument*, i8*)* @"Simatic.Ax.Json.AbstractJsonElement.SerializeHelper$I@R@Simatic.Ax.Json.AbstractJsonElement@this?I@V@REF_TO Simatic.Ax.Json.JsonDocument@doc?I@V@STRING@valueAsString" to i8*), i8* bitcast (%STRING.0 (%Simatic.Ax.Json.JsonObject*)* @"Simatic.Ax.Json.JsonObject.ToString$I@R@Simatic.Ax.Json.JsonObject@this" to i8*), i8* bitcast (%STRING.0 (%Simatic.Ax.Json.AbstractJsonElement*, i8*)* @"Simatic.Ax.Json.AbstractJsonElement.ToStringHelper$I@R@Simatic.Ax.Json.AbstractJsonElement@this?I@V@STRING@valueAsString" to i8*)] }
@axunit_payload_default_value = global %AxUnit.Mocking.IPayload* null
@axunit_dispatcher_current_payload_var = global [1 x %AxUnit.Mocking.IPayload*] zeroinitializer
@Main = global %"$Task" zeroinitializer
@axunit_TestsExecuted = global i16 0, !dbg !30
@axunit_Test_0_Result = global i8 3, !dbg !34
@axunit_Test_1_Result = global i8 3, !dbg !38
@axunit_Test_2_Result = global i8 3, !dbg !40
@axunit_Test_3_Result = global i8 3, !dbg !42
@axunit_testfixture_instance_UsingDeserializer = global %UsingDeserializer { i8* bitcast (%"$CD_UsingDeserializer"* @"$cd_UsingDeserializer" to i8*), %Simatic.Ax.Json.Deserializer { i8* bitcast (%"$CD_Simatic.Ax.Json.Deserializer"* @"$cd_Simatic.Ax.Json.Deserializer" to i8*), [1000 x i8]* null }, [1000 x i8] zeroinitializer, %STRING.0 { i8 -2, i8 0, [255 x i8] zeroinitializer }, %STRING.0 { i8 -2, i8 0, [255 x i8] zeroinitializer }, i32 0, i1 false }, !dbg !44
@axunit_testfixture_instance_default_valuesUsingDeserializer = global %UsingDeserializer { i8* bitcast (%"$CD_UsingDeserializer"* @"$cd_UsingDeserializer" to i8*), %Simatic.Ax.Json.Deserializer { i8* bitcast (%"$CD_Simatic.Ax.Json.Deserializer"* @"$cd_Simatic.Ax.Json.Deserializer" to i8*), [1000 x i8]* null }, [1000 x i8] zeroinitializer, %STRING.0 { i8 -2, i8 0, [255 x i8] zeroinitializer }, %STRING.0 { i8 -2, i8 0, [255 x i8] zeroinitializer }, i32 0, i1 false }, !dbg !79
@"$cStr" = internal global %"STRING[0]" zeroinitializer
@"$cStr.1" = internal global %"STRING[0]" zeroinitializer
@"$cStr.2" = internal global %"STRING[0]" zeroinitializer
@"$cStr.3" = internal global %"STRING[0]" zeroinitializer
@"$cStr.4" = internal global %"STRING[66]" { i8 66, i8 66, [67 x i8] c"{ \22key1\22: \22stringValue\22, \22key2\22: 10, \22key3\22: 1234, \22key4\22: \221234\22}\00" }
@"$cStr.5" = internal global %"STRING[4]" { i8 4, i8 4, [5 x i8] c"key1\00" }
@"$cStr.6" = internal global %"STRING[11]" { i8 11, i8 11, [12 x i8] c"stringValue\00" }
@"$cStr.7" = internal global %"STRING[4]" { i8 4, i8 4, [5 x i8] c"key2\00" }
@"$cStr.8" = internal global %"STRING[4]" { i8 4, i8 4, [5 x i8] c"key3\00" }
@"$cStr.9" = internal global %"STRING[9]" { i8 9, i8 9, [10 x i8] c"Not a key\00" }
@"$cStr.10" = internal global %"STRING[4]" { i8 4, i8 4, [5 x i8] c"key2\00" }
@"$cStr.11" = internal global %"STRING[2]" { i8 2, i8 2, [3 x i8] c"10\00" }
@"$cStr.12" = internal global %"STRING[4]" { i8 4, i8 4, [5 x i8] c"key4\00" }
@"$cStr.13" = internal global %"STRING[4]" { i8 4, i8 4, [5 x i8] c"key1\00" }
@"$cStr.14" = internal global %"STRING[27]" { i8 27, i8 27, [28 x i8] c"{ \22arraykey\22: [1234, 5678]}\00" }
@"$cStr.15" = internal global %"STRING[8]" { i8 8, i8 8, [9 x i8] c"arraykey\00" }
@"$cStr.16" = internal global %"STRING[12]" { i8 12, i8 12, [13 x i8] c"[1234, 5678]\00" }
@"$cStr.17" = internal global %"STRING[60]" { i8 60, i8 60, [61 x i8] c"{ \22key1\22: {\22nestedkey1\22: \22nested value\22, \22nestedkey2\22: 456}}\00" }
@"$cStr.18" = internal global %"STRING[4]" { i8 4, i8 4, [5 x i8] c"key1\00" }
@"$cStr.19" = internal global %"STRING[49]" { i8 49, i8 49, [50 x i8] c"{\22nestedkey1\22: \22nested value\22, \22nestedkey2\22: 456}\00" }
@"$cStr.20" = internal global %"STRING[4]" { i8 4, i8 4, [5 x i8] c"key1\00" }
@"$cStr.21" = internal global %"STRING[10]" { i8 10, i8 10, [11 x i8] c"nestedkey1\00" }
@"$cStr.22" = internal global %"STRING[12]" { i8 12, i8 12, [13 x i8] c"nested value\00" }
@"$cStr.23" = internal global %"STRING[85]" { i8 85, i8 85, [86 x i8] c"{ \22key1\22: {\22nestedkey1\22: \22nested value\22, \22nestedkey2\22: {\22nested_nested_key\22 : 1234}}}\00" }
@"$cStr.24" = internal global %"STRING[4]" { i8 4, i8 4, [5 x i8] c"key1\00" }
@"$cStr.25" = internal global %"STRING[10]" { i8 10, i8 10, [11 x i8] c"nestedkey2\00" }
@"$cStr.26" = internal global %"STRING[17]" { i8 17, i8 17, [18 x i8] c"nested_nested_key\00" }
@"$cStr.27" = internal global %"STRING[0]" zeroinitializer
@"$cStr.28" = internal global %"STRING[0]" zeroinitializer
@"$cStr.29" = internal global %"STRING[2]" { i8 2, i8 2, [3 x i8] c", \00" }
@"$cStr.30" = internal global %"STRING[2]" { i8 2, i8 2, [3 x i8] c", \00" }
@"$cStr.31" = internal global %"STRING[3]" { i8 3, i8 3, [4 x i8] c": \22\00" }
@"$cStr.32" = internal global %"STRING[4]" { i8 4, i8 4, [5 x i8] c"true\00" }
@"$cStr.33" = internal global %"STRING[5]" { i8 5, i8 5, [6 x i8] c"false\00" }
@"$cStr.34" = internal global %"STRING[3]" { i8 3, i8 3, [4 x i8] c"\22: \00" }
@"$cStr.35" = internal global %"STRING[3]" { i8 3, i8 3, [4 x i8] c"\22: \00" }
@"$cStr.36" = internal global %"STRING[2]" { i8 2, i8 2, [3 x i8] c", \00" }
@"$cStr.37" = internal global %"STRING[3]" { i8 3, i8 3, [4 x i8] c"\22: \00" }
@"$cStr.38" = internal global %"STRING[2]" { i8 2, i8 2, [3 x i8] c", \00" }
@"$ax.throw_exception" = dso_local local_unnamed_addr global void (i8*)* @"?$ax.stderr@@YAXPEBD@Z", align 8
@"??_C@_03OFAPEBGM@?$CFs?6?$AA@" = linkonce_odr dso_local unnamed_addr constant [4 x i8] c"%s\0A\00", comdat, align 1
@"?_OptionsStorage@?1??__local_stdio_printf_options@@9@4_KA" = linkonce_odr dso_local global i64 0, comdat, align 8
@"??_C@_0FE@HKMFAKJH@The?5dimension?5for?5lower_bound?5is@" = linkonce_odr dso_local unnamed_addr constant [84 x i8] c"The dimension for lower_bound is not between the dimension of this array* instance.\00", comdat, align 1
@"??_C@_0FE@MELOPMAH@The?5dimension?5for?5upper_bound?5is@" = linkonce_odr dso_local unnamed_addr constant [84 x i8] c"The dimension for upper_bound is not between the dimension of this array* instance.\00", comdat, align 1
@"??_C@_0FH@JGBLDNCE@String?5operation?5failed?3?5value?8s@" = linkonce_odr dso_local unnamed_addr constant [87 x i8] c"String operation failed: value's type info is corrupt: max cap: %d, used len: %d (%d)\0A\00", comdat, align 1
@"??_C@_03IGPHLJKL@NIL?$AA@" = linkonce_odr dso_local unnamed_addr constant [4 x i8] c"NIL\00", comdat, align 1
@"??_C@_0P@EALMCFKA@STRING_CORRUPT?$AA@" = linkonce_odr dso_local unnamed_addr constant [15 x i8] c"STRING_CORRUPT\00", comdat, align 1

declare %STRING.0 @"Simatic.Ax.Json.IJsonElement.ToString$I@V@REF_TO Simatic.Ax.Json.IJsonElement@this"(%Simatic.Ax.Json.IJsonElement*)

declare i1 @"Simatic.Ax.Json.IJsonElement.Serialize$I@V@REF_TO Simatic.Ax.Json.IJsonElement@this?I@V@REF_TO Simatic.Ax.Json.JsonDocument@doc"(%Simatic.Ax.Json.IJsonElement*, %Simatic.Ax.Json.JsonDocument*)

declare i1 @"Simatic.Ax.Json.IJsonElementMuteable.HasNext$I@V@REF_TO Simatic.Ax.Json.IJsonElementMuteable@this"(%Simatic.Ax.Json.IJsonElementMuteable*)

declare %Simatic.Ax.Json.IJsonElementMuteable* @"Simatic.Ax.Json.IJsonElementMuteable.GetNext$I@V@REF_TO Simatic.Ax.Json.IJsonElementMuteable@this"(%Simatic.Ax.Json.IJsonElementMuteable*)

declare void @"Simatic.Ax.Json.IJsonElementMuteable.AddElement$I@V@REF_TO Simatic.Ax.Json.IJsonElementMuteable@this?I@V@REF_TO Simatic.Ax.Json.IJsonElement@elem"(%Simatic.Ax.Json.IJsonElementMuteable*, %Simatic.Ax.Json.IJsonElement*)

define void @"UsingDeserializer.GetValue_BASIC_DATA_TYPES$I@R@UsingDeserializer@this"(%UsingDeserializer* %this) !dbg !97 {
Entry:
  %this.addr = alloca %UsingDeserializer*
  %stringValue = alloca %STRING.0
  %usintValue = alloca i8
  %intValue = alloca i16
  call void @llvm.dbg.declare(metadata %UsingDeserializer** %this.addr, metadata !101, metadata !DIExpression()), !dbg !102
  call void @llvm.dbg.declare(metadata %STRING.0* %stringValue, metadata !103, metadata !DIExpression()), !dbg !104
  call void @llvm.dbg.declare(metadata i8* %usintValue, metadata !105, metadata !DIExpression()), !dbg !106
  call void @llvm.dbg.declare(metadata i16* %intValue, metadata !107, metadata !DIExpression()), !dbg !108
  %0 = alloca [1 x %"$ax.ArrayBounds"]
  store [1 x %"$ax.ArrayBounds"] [%"$ax.ArrayBounds" { i32 0, i32 999, i32 1 }], [1 x %"$ax.ArrayBounds"]* %0
  %1 = alloca %"$ax.ArrayWithBound"
  %2 = alloca %STRING.0
  store %STRING.0 { i8 -2, i8 0, [255 x i8] zeroinitializer }, %STRING.0* %2
  %3 = alloca [1 x i8]
  store [1 x i8] zeroinitializer, [1 x i8]* %3
  %4 = alloca [1 x i8]
  store [1 x i8] zeroinitializer, [1 x i8]* %4
  %5 = alloca [1 x i8]
  %6 = alloca [1 x i8]
  %7 = alloca [1 x %"$ax.ArrayBounds"]
  store [1 x %"$ax.ArrayBounds"] [%"$ax.ArrayBounds" { i32 0, i32 0, i32 1 }], [1 x %"$ax.ArrayBounds"]* %7
  %8 = alloca %"$ax.ArrayWithBound"
  %9 = alloca [1 x %"$ax.ArrayBounds"]
  store [1 x %"$ax.ArrayBounds"] [%"$ax.ArrayBounds" { i32 0, i32 0, i32 1 }], [1 x %"$ax.ArrayBounds"]* %9
  %10 = alloca %"$ax.ArrayWithBound"
  %11 = alloca i8
  store i8 0, i8* %11
  %12 = alloca [1 x i8]
  store [1 x i8] zeroinitializer, [1 x i8]* %12
  %13 = alloca [1 x i8]
  store [1 x i8] zeroinitializer, [1 x i8]* %13
  %14 = alloca [1 x i8]
  %15 = alloca [1 x i8]
  %16 = alloca [1 x %"$ax.ArrayBounds"]
  store [1 x %"$ax.ArrayBounds"] [%"$ax.ArrayBounds" { i32 0, i32 0, i32 1 }], [1 x %"$ax.ArrayBounds"]* %16
  %17 = alloca %"$ax.ArrayWithBound"
  %18 = alloca [1 x %"$ax.ArrayBounds"]
  store [1 x %"$ax.ArrayBounds"] [%"$ax.ArrayBounds" { i32 0, i32 0, i32 1 }], [1 x %"$ax.ArrayBounds"]* %18
  %19 = alloca %"$ax.ArrayWithBound"
  %20 = alloca [1 x i8]
  store [1 x i8] zeroinitializer, [1 x i8]* %20
  %21 = alloca [1 x i8]
  store [1 x i8] zeroinitializer, [1 x i8]* %21
  %22 = alloca [1 x i8]
  %23 = alloca [1 x i8]
  %24 = alloca [1 x %"$ax.ArrayBounds"]
  store [1 x %"$ax.ArrayBounds"] [%"$ax.ArrayBounds" { i32 0, i32 0, i32 1 }], [1 x %"$ax.ArrayBounds"]* %24
  %25 = alloca %"$ax.ArrayWithBound"
  %26 = alloca [1 x %"$ax.ArrayBounds"]
  store [1 x %"$ax.ArrayBounds"] [%"$ax.ArrayBounds" { i32 0, i32 0, i32 1 }], [1 x %"$ax.ArrayBounds"]* %26
  %27 = alloca %"$ax.ArrayWithBound"
  %28 = alloca i16
  store i16 0, i16* %28
  %29 = alloca [1 x i8]
  store [1 x i8] zeroinitializer, [1 x i8]* %29
  %30 = alloca [1 x i8]
  store [1 x i8] zeroinitializer, [1 x i8]* %30
  %31 = alloca [1 x i8]
  %32 = alloca [1 x i8]
  %33 = alloca [1 x %"$ax.ArrayBounds"]
  store [1 x %"$ax.ArrayBounds"] [%"$ax.ArrayBounds" { i32 0, i32 0, i32 1 }], [1 x %"$ax.ArrayBounds"]* %33
  %34 = alloca %"$ax.ArrayWithBound"
  %35 = alloca [1 x %"$ax.ArrayBounds"]
  store [1 x %"$ax.ArrayBounds"] [%"$ax.ArrayBounds" { i32 0, i32 0, i32 1 }], [1 x %"$ax.ArrayBounds"]* %35
  %36 = alloca %"$ax.ArrayWithBound"
  %37 = alloca [2 x i8]
  store [2 x i8] zeroinitializer, [2 x i8]* %37
  %38 = alloca [2 x i8]
  store [2 x i8] zeroinitializer, [2 x i8]* %38
  %39 = alloca [2 x i8]
  %40 = alloca [2 x i8]
  %41 = alloca [1 x %"$ax.ArrayBounds"]
  store [1 x %"$ax.ArrayBounds"] [%"$ax.ArrayBounds" { i32 0, i32 1, i32 1 }], [1 x %"$ax.ArrayBounds"]* %41
  %42 = alloca %"$ax.ArrayWithBound"
  %43 = alloca [1 x %"$ax.ArrayBounds"]
  store [1 x %"$ax.ArrayBounds"] [%"$ax.ArrayBounds" { i32 0, i32 1, i32 1 }], [1 x %"$ax.ArrayBounds"]* %43
  %44 = alloca %"$ax.ArrayWithBound"
  %45 = alloca i16
  store i16 0, i16* %45
  %46 = alloca [1 x i8]
  store [1 x i8] zeroinitializer, [1 x i8]* %46
  %47 = alloca [1 x i8]
  store [1 x i8] zeroinitializer, [1 x i8]* %47
  %48 = alloca [1 x i8]
  %49 = alloca [1 x i8]
  %50 = alloca [1 x %"$ax.ArrayBounds"]
  store [1 x %"$ax.ArrayBounds"] [%"$ax.ArrayBounds" { i32 0, i32 0, i32 1 }], [1 x %"$ax.ArrayBounds"]* %50
  %51 = alloca %"$ax.ArrayWithBound"
  %52 = alloca [1 x %"$ax.ArrayBounds"]
  store [1 x %"$ax.ArrayBounds"] [%"$ax.ArrayBounds" { i32 0, i32 0, i32 1 }], [1 x %"$ax.ArrayBounds"]* %52
  %53 = alloca %"$ax.ArrayWithBound"
  %54 = alloca [2 x i8]
  store [2 x i8] zeroinitializer, [2 x i8]* %54
  %55 = alloca [2 x i8]
  store [2 x i8] zeroinitializer, [2 x i8]* %55
  %56 = alloca [2 x i8]
  %57 = alloca [2 x i8]
  %58 = alloca [1 x %"$ax.ArrayBounds"]
  store [1 x %"$ax.ArrayBounds"] [%"$ax.ArrayBounds" { i32 0, i32 1, i32 1 }], [1 x %"$ax.ArrayBounds"]* %58
  %59 = alloca %"$ax.ArrayWithBound"
  %60 = alloca [1 x %"$ax.ArrayBounds"]
  store [1 x %"$ax.ArrayBounds"] [%"$ax.ArrayBounds" { i32 0, i32 1, i32 1 }], [1 x %"$ax.ArrayBounds"]* %60
  %61 = alloca %"$ax.ArrayWithBound"
  %62 = alloca %STRING.0
  store %STRING.0 { i8 -2, i8 0, [255 x i8] zeroinitializer }, %STRING.0* %62
  %63 = alloca [1 x i8]
  store [1 x i8] zeroinitializer, [1 x i8]* %63
  %64 = alloca [1 x i8]
  store [1 x i8] zeroinitializer, [1 x i8]* %64
  %65 = alloca [1 x i8]
  %66 = alloca [1 x i8]
  %67 = alloca [1 x %"$ax.ArrayBounds"]
  store [1 x %"$ax.ArrayBounds"] [%"$ax.ArrayBounds" { i32 0, i32 0, i32 1 }], [1 x %"$ax.ArrayBounds"]* %67
  %68 = alloca %"$ax.ArrayWithBound"
  %69 = alloca [1 x %"$ax.ArrayBounds"]
  store [1 x %"$ax.ArrayBounds"] [%"$ax.ArrayBounds" { i32 0, i32 0, i32 1 }], [1 x %"$ax.ArrayBounds"]* %69
  %70 = alloca %"$ax.ArrayWithBound"
  %71 = alloca i16
  store i16 0, i16* %71
  %72 = alloca [1 x i8]
  store [1 x i8] zeroinitializer, [1 x i8]* %72
  %73 = alloca [1 x i8]
  store [1 x i8] zeroinitializer, [1 x i8]* %73
  %74 = alloca [1 x i8]
  %75 = alloca [1 x i8]
  %76 = alloca [1 x %"$ax.ArrayBounds"]
  store [1 x %"$ax.ArrayBounds"] [%"$ax.ArrayBounds" { i32 0, i32 0, i32 1 }], [1 x %"$ax.ArrayBounds"]* %76
  %77 = alloca %"$ax.ArrayWithBound"
  %78 = alloca [1 x %"$ax.ArrayBounds"]
  store [1 x %"$ax.ArrayBounds"] [%"$ax.ArrayBounds" { i32 0, i32 0, i32 1 }], [1 x %"$ax.ArrayBounds"]* %78
  %79 = alloca %"$ax.ArrayWithBound"
  %80 = alloca [2 x i8]
  store [2 x i8] zeroinitializer, [2 x i8]* %80
  %81 = alloca [2 x i8]
  store [2 x i8] zeroinitializer, [2 x i8]* %81
  %82 = alloca [2 x i8]
  %83 = alloca [2 x i8]
  %84 = alloca [1 x %"$ax.ArrayBounds"]
  store [1 x %"$ax.ArrayBounds"] [%"$ax.ArrayBounds" { i32 0, i32 1, i32 1 }], [1 x %"$ax.ArrayBounds"]* %84
  %85 = alloca %"$ax.ArrayWithBound"
  %86 = alloca [1 x %"$ax.ArrayBounds"]
  store [1 x %"$ax.ArrayBounds"] [%"$ax.ArrayBounds" { i32 0, i32 1, i32 1 }], [1 x %"$ax.ArrayBounds"]* %86
  %87 = alloca %"$ax.ArrayWithBound"
  %88 = alloca i16
  store i16 0, i16* %88
  %89 = alloca [1 x i8]
  store [1 x i8] zeroinitializer, [1 x i8]* %89
  %90 = alloca [1 x i8]
  store [1 x i8] zeroinitializer, [1 x i8]* %90
  %91 = alloca [1 x i8]
  %92 = alloca [1 x i8]
  %93 = alloca [1 x %"$ax.ArrayBounds"]
  store [1 x %"$ax.ArrayBounds"] [%"$ax.ArrayBounds" { i32 0, i32 0, i32 1 }], [1 x %"$ax.ArrayBounds"]* %93
  %94 = alloca %"$ax.ArrayWithBound"
  %95 = alloca [1 x %"$ax.ArrayBounds"]
  store [1 x %"$ax.ArrayBounds"] [%"$ax.ArrayBounds" { i32 0, i32 0, i32 1 }], [1 x %"$ax.ArrayBounds"]* %95
  %96 = alloca %"$ax.ArrayWithBound"
  %97 = alloca [2 x i8]
  store [2 x i8] zeroinitializer, [2 x i8]* %97
  %98 = alloca [2 x i8]
  store [2 x i8] zeroinitializer, [2 x i8]* %98
  %99 = alloca [2 x i8]
  %100 = alloca [2 x i8]
  %101 = alloca [1 x %"$ax.ArrayBounds"]
  store [1 x %"$ax.ArrayBounds"] [%"$ax.ArrayBounds" { i32 0, i32 1, i32 1 }], [1 x %"$ax.ArrayBounds"]* %101
  %102 = alloca %"$ax.ArrayWithBound"
  %103 = alloca [1 x %"$ax.ArrayBounds"]
  store [1 x %"$ax.ArrayBounds"] [%"$ax.ArrayBounds" { i32 0, i32 1, i32 1 }], [1 x %"$ax.ArrayBounds"]* %103
  %104 = alloca %"$ax.ArrayWithBound"
  store %UsingDeserializer* %this, %UsingDeserializer** %this.addr
  store %STRING.0 { i8 -2, i8 0, [255 x i8] zeroinitializer }, %STRING.0* %stringValue
  store i8 0, i8* %usintValue
  store i16 0, i16* %intValue
  br label %bb1

bb1:                                              ; preds = %Entry
  %auto_deref_this.addr = load %UsingDeserializer*, %UsingDeserializer** %this.addr, !dbg !109
  %JSON_Entry = getelementptr inbounds %UsingDeserializer, %UsingDeserializer* %auto_deref_this.addr, i32 0, i32 3, !dbg !109
  %105 = bitcast %STRING.0* %JSON_Entry to i8*, !dbg !109
  call void @"$ax.AssignST_String"(i8* %105, i8* getelementptr inbounds (%"STRING[66]", %"STRING[66]"* @"$cStr.4", i32 0, i32 0)), !dbg !109
  %auto_deref_this.addr1 = load %UsingDeserializer*, %UsingDeserializer** %this.addr, !dbg !110
  %JSON_Entry2 = getelementptr inbounds %UsingDeserializer, %UsingDeserializer* %auto_deref_this.addr1, i32 0, i32 3, !dbg !110
  %auto_deref_this.addr3 = load %UsingDeserializer*, %UsingDeserializer** %this.addr, !dbg !110
  %buffer = getelementptr inbounds %UsingDeserializer, %UsingDeserializer* %auto_deref_this.addr3, i32 0, i32 2, !dbg !110
  %106 = bitcast %STRING.0* %JSON_Entry2 to i8*, !dbg !110
  %107 = bitcast [1000 x i8]* %buffer to i8*, !dbg !110
  store %"$ax.ArrayWithBound" { i8* null, i32 1, %"$ax.ArrayBounds"* null }, %"$ax.ArrayWithBound"* %1, !dbg !110
  %"$array_ptr" = getelementptr inbounds %"$ax.ArrayWithBound", %"$ax.ArrayWithBound"* %1, i32 0, i32 0, !dbg !110
  store i8* %107, i8** %"$array_ptr", !dbg !110
  %"$bounds" = getelementptr inbounds %"$ax.ArrayWithBound", %"$ax.ArrayWithBound"* %1, i32 0, i32 2, !dbg !110
  %108 = bitcast [1 x %"$ax.ArrayBounds"]* %0 to %"$ax.ArrayBounds"*, !dbg !110
  store %"$ax.ArrayBounds"* %108, %"$ax.ArrayBounds"** %"$bounds", !dbg !110
  %109 = call i32 @"Simatic.Ax.Conversion.Strings.ToArray$I@V@STRING@str?I@R@ARRAY [*] OF CHAR@arr"(i8* %106, %"$ax.ArrayWithBound"* %1), !dbg !110
  %auto_deref_this.addr4 = load %UsingDeserializer*, %UsingDeserializer** %this.addr, !dbg !110
  %len = getelementptr inbounds %UsingDeserializer, %UsingDeserializer* %auto_deref_this.addr4, i32 0, i32 5, !dbg !110
  store i32 %109, i32* %len, !dbg !110
  %auto_deref_this.addr5 = load %UsingDeserializer*, %UsingDeserializer** %this.addr, !dbg !111
  %deserializer = getelementptr inbounds %UsingDeserializer, %UsingDeserializer* %auto_deref_this.addr5, i32 0, i32 1, !dbg !111
  %auto_deref_this.addr6 = load %UsingDeserializer*, %UsingDeserializer** %this.addr, !dbg !111
  %buffer7 = getelementptr inbounds %UsingDeserializer, %UsingDeserializer* %auto_deref_this.addr6, i32 0, i32 2, !dbg !111
  %110 = getelementptr inbounds %Simatic.Ax.Json.Deserializer, %Simatic.Ax.Json.Deserializer* %deserializer, i32 0, i32 0, !dbg !111
  %111 = load i8*, i8** %110, !dbg !111
  %112 = bitcast i8* %111 to %"$CD_Simatic.Ax.Json.Deserializer"*, !dbg !111
  %"$vTable" = getelementptr inbounds %"$CD_Simatic.Ax.Json.Deserializer", %"$CD_Simatic.Ax.Json.Deserializer"* %112, i32 0, i32 4, !dbg !111
  %113 = getelementptr inbounds [19 x i8*], [19 x i8*]* %"$vTable", i32 0, i32 0, !dbg !111
  %114 = load i8*, i8** %113, !dbg !111
  %115 = bitcast i8* %114 to void (%Simatic.Ax.Json.Deserializer*, [1000 x i8]*)*, !dbg !111
  call void %115(%Simatic.Ax.Json.Deserializer* %deserializer, [1000 x i8]* %buffer7), !dbg !111
  %auto_deref_this.addr8 = load %UsingDeserializer*, %UsingDeserializer** %this.addr, !dbg !112
  %key = getelementptr inbounds %UsingDeserializer, %UsingDeserializer* %auto_deref_this.addr8, i32 0, i32 4, !dbg !112
  %116 = bitcast %STRING.0* %key to i8*, !dbg !112
  call void @"$ax.AssignST_String"(i8* %116, i8* getelementptr inbounds (%"STRING[4]", %"STRING[4]"* @"$cStr.5", i32 0, i32 0)), !dbg !112
  %auto_deref_this.addr9 = load %UsingDeserializer*, %UsingDeserializer** %this.addr, !dbg !113
  %deserializer10 = getelementptr inbounds %UsingDeserializer, %UsingDeserializer* %auto_deref_this.addr9, i32 0, i32 1, !dbg !113
  %auto_deref_this.addr11 = load %UsingDeserializer*, %UsingDeserializer** %this.addr, !dbg !113
  %key12 = getelementptr inbounds %UsingDeserializer, %UsingDeserializer* %auto_deref_this.addr11, i32 0, i32 4, !dbg !113
  %117 = bitcast %STRING.0* %2 to i8*, !dbg !113
  %118 = bitcast %STRING.0* %stringValue to i8*, !dbg !113
  call void @"$ax.AssignST_String"(i8* %117, i8* %118), !dbg !113
  %119 = bitcast %STRING.0* %key12 to i8*, !dbg !113
  %120 = bitcast %STRING.0* %2 to i8*, !dbg !113
  %121 = getelementptr inbounds %Simatic.Ax.Json.Deserializer, %Simatic.Ax.Json.Deserializer* %deserializer10, i32 0, i32 0, !dbg !113
  %122 = load i8*, i8** %121, !dbg !113
  %123 = bitcast i8* %122 to %"$CD_Simatic.Ax.Json.Deserializer"*, !dbg !113
  %"$vTable13" = getelementptr inbounds %"$CD_Simatic.Ax.Json.Deserializer", %"$CD_Simatic.Ax.Json.Deserializer"* %123, i32 0, i32 4, !dbg !113
  %124 = getelementptr inbounds [19 x i8*], [19 x i8*]* %"$vTable13", i32 0, i32 5, !dbg !113
  %125 = load i8*, i8** %124, !dbg !113
  %126 = bitcast i8* %125 to i1 (%Simatic.Ax.Json.Deserializer*, i8*, i8*)*, !dbg !113
  %127 = call i1 %126(%Simatic.Ax.Json.Deserializer* %deserializer10, i8* %119, i8* %120), !dbg !113
  %128 = bitcast %STRING.0* %stringValue to i8*, !dbg !113
  %129 = bitcast %STRING.0* %2 to i8*, !dbg !113
  call void @"$ax.AssignST_String"(i8* %128, i8* %129), !dbg !113
  %auto_deref_this.addr14 = load %UsingDeserializer*, %UsingDeserializer** %this.addr, !dbg !113
  %keyFound = getelementptr inbounds %UsingDeserializer, %UsingDeserializer* %auto_deref_this.addr14, i32 0, i32 6, !dbg !113
  store i1 %127, i1* %keyFound, !dbg !113
  %auto_deref_this.addr15 = load %UsingDeserializer*, %UsingDeserializer** %this.addr, !dbg !114
  %keyFound16 = getelementptr inbounds %UsingDeserializer, %UsingDeserializer* %auto_deref_this.addr15, i32 0, i32 6, !dbg !114
  %130 = load i1, i1* %keyFound16, !dbg !114
  %131 = icmp eq i1 %130, true, !dbg !114
  %132 = load i1, i1* @GlobalAssertValue, !dbg !114
  %133 = and i1 %131, %132, !dbg !114
  store i1 %133, i1* @GlobalAssertValue, !dbg !114
  %134 = load i1, i1* %keyFound16, !dbg !114
  %135 = call [1 x i8] @"AxUnit.ToByteArray$I@V@Int1@value"(i1 %134), !dbg !114
  store [1 x i8] %135, [1 x i8]* %5, !dbg !114
  %136 = load [1 x i8], [1 x i8]* %5, !dbg !114
  store [1 x i8] %136, [1 x i8]* %3, !dbg !114
  %137 = call [1 x i8] @"AxUnit.ToByteArray$I@V@Int1@value"(i1 true), !dbg !114
  store [1 x i8] %137, [1 x i8]* %6, !dbg !114
  %138 = load [1 x i8], [1 x i8]* %6, !dbg !114
  store [1 x i8] %138, [1 x i8]* %4, !dbg !114
  %139 = bitcast [1 x i8]* %3 to i8*, !dbg !114
  store %"$ax.ArrayWithBound" { i8* null, i32 1, %"$ax.ArrayBounds"* null }, %"$ax.ArrayWithBound"* %8, !dbg !114
  %"$array_ptr17" = getelementptr inbounds %"$ax.ArrayWithBound", %"$ax.ArrayWithBound"* %8, i32 0, i32 0, !dbg !114
  store i8* %139, i8** %"$array_ptr17", !dbg !114
  %"$bounds18" = getelementptr inbounds %"$ax.ArrayWithBound", %"$ax.ArrayWithBound"* %8, i32 0, i32 2, !dbg !114
  %140 = bitcast [1 x %"$ax.ArrayBounds"]* %7 to %"$ax.ArrayBounds"*, !dbg !114
  store %"$ax.ArrayBounds"* %140, %"$ax.ArrayBounds"** %"$bounds18", !dbg !114
  %141 = load %"$ax.ArrayWithBound", %"$ax.ArrayWithBound"* %8, !dbg !114
  %142 = bitcast [1 x i8]* %4 to i8*, !dbg !114
  store %"$ax.ArrayWithBound" { i8* null, i32 1, %"$ax.ArrayBounds"* null }, %"$ax.ArrayWithBound"* %10, !dbg !114
  %"$array_ptr19" = getelementptr inbounds %"$ax.ArrayWithBound", %"$ax.ArrayWithBound"* %10, i32 0, i32 0, !dbg !114
  store i8* %142, i8** %"$array_ptr19", !dbg !114
  %"$bounds20" = getelementptr inbounds %"$ax.ArrayWithBound", %"$ax.ArrayWithBound"* %10, i32 0, i32 2, !dbg !114
  %143 = bitcast [1 x %"$ax.ArrayBounds"]* %9 to %"$ax.ArrayBounds"*, !dbg !114
  store %"$ax.ArrayBounds"* %143, %"$ax.ArrayBounds"** %"$bounds20", !dbg !114
  %144 = load %"$ax.ArrayWithBound", %"$ax.ArrayWithBound"* %10, !dbg !114
  call void @"axunit_AssertLocationWriter$I@V@Int1@assertResult?I@V@UInt16@assertLocationId?I@V@Byte8@comparerTypeId?I@V@Byte8@assertDataType?I@V@axunit_assertData@assertDataLeft?I@V@axunit_assertData@assertDataRight?I@V@UInt16@lengthOfValueArray"(i1 %131, i16 0, i8 1, i8 1, %"$ax.ArrayWithBound" %141, %"$ax.ArrayWithBound" %144, i16 1), !dbg !114
  %145 = bitcast %STRING.0* %stringValue to i8*, !dbg !115
  %146 = call i32 @"$ax.CmpST_String"(i8* %145, i8* getelementptr inbounds (%"STRING[11]", %"STRING[11]"* @"$cStr.6", i32 0, i32 0)), !dbg !115
  %147 = icmp eq i32 %146, 0, !dbg !115
  %148 = load i1, i1* @GlobalAssertValue, !dbg !115
  %149 = and i1 %147, %148, !dbg !115
  store i1 %149, i1* @GlobalAssertValue, !dbg !115
  call void @"axunit_AssertLocationWriter$I@V@Int1@assertResult?I@V@UInt16@assertLocationId?I@V@Byte8@comparerTypeId?I@V@Byte8@assertDataType"(i1 %147, i16 1, i8 1, i8 0), !dbg !115
  %auto_deref_this.addr21 = load %UsingDeserializer*, %UsingDeserializer** %this.addr, !dbg !116
  %key22 = getelementptr inbounds %UsingDeserializer, %UsingDeserializer* %auto_deref_this.addr21, i32 0, i32 4, !dbg !116
  %150 = bitcast %STRING.0* %key22 to i8*, !dbg !116
  call void @"$ax.AssignST_String"(i8* %150, i8* getelementptr inbounds (%"STRING[4]", %"STRING[4]"* @"$cStr.7", i32 0, i32 0)), !dbg !116
  %auto_deref_this.addr23 = load %UsingDeserializer*, %UsingDeserializer** %this.addr, !dbg !117
  %deserializer24 = getelementptr inbounds %UsingDeserializer, %UsingDeserializer* %auto_deref_this.addr23, i32 0, i32 1, !dbg !117
  %auto_deref_this.addr25 = load %UsingDeserializer*, %UsingDeserializer** %this.addr, !dbg !117
  %key26 = getelementptr inbounds %UsingDeserializer, %UsingDeserializer* %auto_deref_this.addr25, i32 0, i32 4, !dbg !117
  %151 = load i8, i8* %usintValue, !dbg !117
  store i8 %151, i8* %11, !dbg !117
  %152 = bitcast %STRING.0* %key26 to i8*, !dbg !117
  %153 = getelementptr inbounds %Simatic.Ax.Json.Deserializer, %Simatic.Ax.Json.Deserializer* %deserializer24, i32 0, i32 0, !dbg !117
  %154 = load i8*, i8** %153, !dbg !117
  %155 = bitcast i8* %154 to %"$CD_Simatic.Ax.Json.Deserializer"*, !dbg !117
  %"$vTable27" = getelementptr inbounds %"$CD_Simatic.Ax.Json.Deserializer", %"$CD_Simatic.Ax.Json.Deserializer"* %155, i32 0, i32 4, !dbg !117
  %156 = getelementptr inbounds [19 x i8*], [19 x i8*]* %"$vTable27", i32 0, i32 9, !dbg !117
  %157 = load i8*, i8** %156, !dbg !117
  %158 = bitcast i8* %157 to i1 (%Simatic.Ax.Json.Deserializer*, i8*, i8*)*, !dbg !117
  %159 = call i1 %158(%Simatic.Ax.Json.Deserializer* %deserializer24, i8* %152, i8* %11), !dbg !117
  %160 = load i8, i8* %11, !dbg !117
  store i8 %160, i8* %usintValue, !dbg !117
  %auto_deref_this.addr28 = load %UsingDeserializer*, %UsingDeserializer** %this.addr, !dbg !117
  %keyFound29 = getelementptr inbounds %UsingDeserializer, %UsingDeserializer* %auto_deref_this.addr28, i32 0, i32 6, !dbg !117
  store i1 %159, i1* %keyFound29, !dbg !117
  %auto_deref_this.addr30 = load %UsingDeserializer*, %UsingDeserializer** %this.addr, !dbg !118
  %keyFound31 = getelementptr inbounds %UsingDeserializer, %UsingDeserializer* %auto_deref_this.addr30, i32 0, i32 6, !dbg !118
  %161 = load i1, i1* %keyFound31, !dbg !118
  %162 = icmp eq i1 %161, true, !dbg !118
  %163 = load i1, i1* @GlobalAssertValue, !dbg !118
  %164 = and i1 %162, %163, !dbg !118
  store i1 %164, i1* @GlobalAssertValue, !dbg !118
  %165 = load i1, i1* %keyFound31, !dbg !118
  %166 = call [1 x i8] @"AxUnit.ToByteArray$I@V@Int1@value"(i1 %165), !dbg !118
  store [1 x i8] %166, [1 x i8]* %14, !dbg !118
  %167 = load [1 x i8], [1 x i8]* %14, !dbg !118
  store [1 x i8] %167, [1 x i8]* %12, !dbg !118
  %168 = call [1 x i8] @"AxUnit.ToByteArray$I@V@Int1@value"(i1 true), !dbg !118
  store [1 x i8] %168, [1 x i8]* %15, !dbg !118
  %169 = load [1 x i8], [1 x i8]* %15, !dbg !118
  store [1 x i8] %169, [1 x i8]* %13, !dbg !118
  %170 = bitcast [1 x i8]* %12 to i8*, !dbg !118
  store %"$ax.ArrayWithBound" { i8* null, i32 1, %"$ax.ArrayBounds"* null }, %"$ax.ArrayWithBound"* %17, !dbg !118
  %"$array_ptr32" = getelementptr inbounds %"$ax.ArrayWithBound", %"$ax.ArrayWithBound"* %17, i32 0, i32 0, !dbg !118
  store i8* %170, i8** %"$array_ptr32", !dbg !118
  %"$bounds33" = getelementptr inbounds %"$ax.ArrayWithBound", %"$ax.ArrayWithBound"* %17, i32 0, i32 2, !dbg !118
  %171 = bitcast [1 x %"$ax.ArrayBounds"]* %16 to %"$ax.ArrayBounds"*, !dbg !118
  store %"$ax.ArrayBounds"* %171, %"$ax.ArrayBounds"** %"$bounds33", !dbg !118
  %172 = load %"$ax.ArrayWithBound", %"$ax.ArrayWithBound"* %17, !dbg !118
  %173 = bitcast [1 x i8]* %13 to i8*, !dbg !118
  store %"$ax.ArrayWithBound" { i8* null, i32 1, %"$ax.ArrayBounds"* null }, %"$ax.ArrayWithBound"* %19, !dbg !118
  %"$array_ptr34" = getelementptr inbounds %"$ax.ArrayWithBound", %"$ax.ArrayWithBound"* %19, i32 0, i32 0, !dbg !118
  store i8* %173, i8** %"$array_ptr34", !dbg !118
  %"$bounds35" = getelementptr inbounds %"$ax.ArrayWithBound", %"$ax.ArrayWithBound"* %19, i32 0, i32 2, !dbg !118
  %174 = bitcast [1 x %"$ax.ArrayBounds"]* %18 to %"$ax.ArrayBounds"*, !dbg !118
  store %"$ax.ArrayBounds"* %174, %"$ax.ArrayBounds"** %"$bounds35", !dbg !118
  %175 = load %"$ax.ArrayWithBound", %"$ax.ArrayWithBound"* %19, !dbg !118
  call void @"axunit_AssertLocationWriter$I@V@Int1@assertResult?I@V@UInt16@assertLocationId?I@V@Byte8@comparerTypeId?I@V@Byte8@assertDataType?I@V@axunit_assertData@assertDataLeft?I@V@axunit_assertData@assertDataRight?I@V@UInt16@lengthOfValueArray"(i1 %162, i16 2, i8 1, i8 1, %"$ax.ArrayWithBound" %172, %"$ax.ArrayWithBound" %175, i16 1), !dbg !118
  %176 = load i8, i8* %usintValue, !dbg !119
  %177 = icmp eq i8 %176, 10, !dbg !119
  %178 = load i1, i1* @GlobalAssertValue, !dbg !119
  %179 = and i1 %177, %178, !dbg !119
  store i1 %179, i1* @GlobalAssertValue, !dbg !119
  %180 = load i8, i8* %usintValue, !dbg !119
  %181 = call [1 x i8] @"AxUnit.ToByteArray$I@V@UInt8@value"(i8 %180), !dbg !119
  store [1 x i8] %181, [1 x i8]* %22, !dbg !119
  %182 = load [1 x i8], [1 x i8]* %22, !dbg !119
  store [1 x i8] %182, [1 x i8]* %20, !dbg !119
  %183 = call [1 x i8] @"AxUnit.ToByteArray$I@V@UInt8@value"(i8 10), !dbg !119
  store [1 x i8] %183, [1 x i8]* %23, !dbg !119
  %184 = load [1 x i8], [1 x i8]* %23, !dbg !119
  store [1 x i8] %184, [1 x i8]* %21, !dbg !119
  %185 = bitcast [1 x i8]* %20 to i8*, !dbg !119
  store %"$ax.ArrayWithBound" { i8* null, i32 1, %"$ax.ArrayBounds"* null }, %"$ax.ArrayWithBound"* %25, !dbg !119
  %"$array_ptr36" = getelementptr inbounds %"$ax.ArrayWithBound", %"$ax.ArrayWithBound"* %25, i32 0, i32 0, !dbg !119
  store i8* %185, i8** %"$array_ptr36", !dbg !119
  %"$bounds37" = getelementptr inbounds %"$ax.ArrayWithBound", %"$ax.ArrayWithBound"* %25, i32 0, i32 2, !dbg !119
  %186 = bitcast [1 x %"$ax.ArrayBounds"]* %24 to %"$ax.ArrayBounds"*, !dbg !119
  store %"$ax.ArrayBounds"* %186, %"$ax.ArrayBounds"** %"$bounds37", !dbg !119
  %187 = load %"$ax.ArrayWithBound", %"$ax.ArrayWithBound"* %25, !dbg !119
  %188 = bitcast [1 x i8]* %21 to i8*, !dbg !119
  store %"$ax.ArrayWithBound" { i8* null, i32 1, %"$ax.ArrayBounds"* null }, %"$ax.ArrayWithBound"* %27, !dbg !119
  %"$array_ptr38" = getelementptr inbounds %"$ax.ArrayWithBound", %"$ax.ArrayWithBound"* %27, i32 0, i32 0, !dbg !119
  store i8* %188, i8** %"$array_ptr38", !dbg !119
  %"$bounds39" = getelementptr inbounds %"$ax.ArrayWithBound", %"$ax.ArrayWithBound"* %27, i32 0, i32 2, !dbg !119
  %189 = bitcast [1 x %"$ax.ArrayBounds"]* %26 to %"$ax.ArrayBounds"*, !dbg !119
  store %"$ax.ArrayBounds"* %189, %"$ax.ArrayBounds"** %"$bounds39", !dbg !119
  %190 = load %"$ax.ArrayWithBound", %"$ax.ArrayWithBound"* %27, !dbg !119
  call void @"axunit_AssertLocationWriter$I@V@Int1@assertResult?I@V@UInt16@assertLocationId?I@V@Byte8@comparerTypeId?I@V@Byte8@assertDataType?I@V@axunit_assertData@assertDataLeft?I@V@axunit_assertData@assertDataRight?I@V@UInt16@lengthOfValueArray"(i1 %177, i16 3, i8 1, i8 6, %"$ax.ArrayWithBound" %187, %"$ax.ArrayWithBound" %190, i16 1), !dbg !119
  %auto_deref_this.addr40 = load %UsingDeserializer*, %UsingDeserializer** %this.addr, !dbg !120
  %key41 = getelementptr inbounds %UsingDeserializer, %UsingDeserializer* %auto_deref_this.addr40, i32 0, i32 4, !dbg !120
  %191 = bitcast %STRING.0* %key41 to i8*, !dbg !120
  call void @"$ax.AssignST_String"(i8* %191, i8* getelementptr inbounds (%"STRING[4]", %"STRING[4]"* @"$cStr.8", i32 0, i32 0)), !dbg !120
  %auto_deref_this.addr42 = load %UsingDeserializer*, %UsingDeserializer** %this.addr, !dbg !121
  %deserializer43 = getelementptr inbounds %UsingDeserializer, %UsingDeserializer* %auto_deref_this.addr42, i32 0, i32 1, !dbg !121
  %auto_deref_this.addr44 = load %UsingDeserializer*, %UsingDeserializer** %this.addr, !dbg !121
  %key45 = getelementptr inbounds %UsingDeserializer, %UsingDeserializer* %auto_deref_this.addr44, i32 0, i32 4, !dbg !121
  %192 = load i16, i16* %intValue, !dbg !121
  store i16 %192, i16* %28, !dbg !121
  %193 = bitcast %STRING.0* %key45 to i8*, !dbg !121
  %194 = getelementptr inbounds %Simatic.Ax.Json.Deserializer, %Simatic.Ax.Json.Deserializer* %deserializer43, i32 0, i32 0, !dbg !121
  %195 = load i8*, i8** %194, !dbg !121
  %196 = bitcast i8* %195 to %"$CD_Simatic.Ax.Json.Deserializer"*, !dbg !121
  %"$vTable46" = getelementptr inbounds %"$CD_Simatic.Ax.Json.Deserializer", %"$CD_Simatic.Ax.Json.Deserializer"* %196, i32 0, i32 4, !dbg !121
  %197 = getelementptr inbounds [19 x i8*], [19 x i8*]* %"$vTable46", i32 0, i32 2, !dbg !121
  %198 = load i8*, i8** %197, !dbg !121
  %199 = bitcast i8* %198 to i1 (%Simatic.Ax.Json.Deserializer*, i8*, i16*)*, !dbg !121
  %200 = call i1 %199(%Simatic.Ax.Json.Deserializer* %deserializer43, i8* %193, i16* %28), !dbg !121
  %201 = load i16, i16* %28, !dbg !121
  store i16 %201, i16* %intValue, !dbg !121
  %auto_deref_this.addr47 = load %UsingDeserializer*, %UsingDeserializer** %this.addr, !dbg !121
  %keyFound48 = getelementptr inbounds %UsingDeserializer, %UsingDeserializer* %auto_deref_this.addr47, i32 0, i32 6, !dbg !121
  store i1 %200, i1* %keyFound48, !dbg !121
  %auto_deref_this.addr49 = load %UsingDeserializer*, %UsingDeserializer** %this.addr, !dbg !122
  %keyFound50 = getelementptr inbounds %UsingDeserializer, %UsingDeserializer* %auto_deref_this.addr49, i32 0, i32 6, !dbg !122
  %202 = load i1, i1* %keyFound50, !dbg !122
  %203 = icmp eq i1 %202, true, !dbg !122
  %204 = load i1, i1* @GlobalAssertValue, !dbg !122
  %205 = and i1 %203, %204, !dbg !122
  store i1 %205, i1* @GlobalAssertValue, !dbg !122
  %206 = load i1, i1* %keyFound50, !dbg !122
  %207 = call [1 x i8] @"AxUnit.ToByteArray$I@V@Int1@value"(i1 %206), !dbg !122
  store [1 x i8] %207, [1 x i8]* %31, !dbg !122
  %208 = load [1 x i8], [1 x i8]* %31, !dbg !122
  store [1 x i8] %208, [1 x i8]* %29, !dbg !122
  %209 = call [1 x i8] @"AxUnit.ToByteArray$I@V@Int1@value"(i1 true), !dbg !122
  store [1 x i8] %209, [1 x i8]* %32, !dbg !122
  %210 = load [1 x i8], [1 x i8]* %32, !dbg !122
  store [1 x i8] %210, [1 x i8]* %30, !dbg !122
  %211 = bitcast [1 x i8]* %29 to i8*, !dbg !122
  store %"$ax.ArrayWithBound" { i8* null, i32 1, %"$ax.ArrayBounds"* null }, %"$ax.ArrayWithBound"* %34, !dbg !122
  %"$array_ptr51" = getelementptr inbounds %"$ax.ArrayWithBound", %"$ax.ArrayWithBound"* %34, i32 0, i32 0, !dbg !122
  store i8* %211, i8** %"$array_ptr51", !dbg !122
  %"$bounds52" = getelementptr inbounds %"$ax.ArrayWithBound", %"$ax.ArrayWithBound"* %34, i32 0, i32 2, !dbg !122
  %212 = bitcast [1 x %"$ax.ArrayBounds"]* %33 to %"$ax.ArrayBounds"*, !dbg !122
  store %"$ax.ArrayBounds"* %212, %"$ax.ArrayBounds"** %"$bounds52", !dbg !122
  %213 = load %"$ax.ArrayWithBound", %"$ax.ArrayWithBound"* %34, !dbg !122
  %214 = bitcast [1 x i8]* %30 to i8*, !dbg !122
  store %"$ax.ArrayWithBound" { i8* null, i32 1, %"$ax.ArrayBounds"* null }, %"$ax.ArrayWithBound"* %36, !dbg !122
  %"$array_ptr53" = getelementptr inbounds %"$ax.ArrayWithBound", %"$ax.ArrayWithBound"* %36, i32 0, i32 0, !dbg !122
  store i8* %214, i8** %"$array_ptr53", !dbg !122
  %"$bounds54" = getelementptr inbounds %"$ax.ArrayWithBound", %"$ax.ArrayWithBound"* %36, i32 0, i32 2, !dbg !122
  %215 = bitcast [1 x %"$ax.ArrayBounds"]* %35 to %"$ax.ArrayBounds"*, !dbg !122
  store %"$ax.ArrayBounds"* %215, %"$ax.ArrayBounds"** %"$bounds54", !dbg !122
  %216 = load %"$ax.ArrayWithBound", %"$ax.ArrayWithBound"* %36, !dbg !122
  call void @"axunit_AssertLocationWriter$I@V@Int1@assertResult?I@V@UInt16@assertLocationId?I@V@Byte8@comparerTypeId?I@V@Byte8@assertDataType?I@V@axunit_assertData@assertDataLeft?I@V@axunit_assertData@assertDataRight?I@V@UInt16@lengthOfValueArray"(i1 %203, i16 4, i8 1, i8 1, %"$ax.ArrayWithBound" %213, %"$ax.ArrayWithBound" %216, i16 1), !dbg !122
  %217 = load i16, i16* %intValue, !dbg !123
  %218 = icmp eq i16 %217, 1234, !dbg !123
  %219 = load i1, i1* @GlobalAssertValue, !dbg !123
  %220 = and i1 %218, %219, !dbg !123
  store i1 %220, i1* @GlobalAssertValue, !dbg !123
  %221 = load i16, i16* %intValue, !dbg !123
  %222 = call [2 x i8] @"AxUnit.ToByteArray$I@V@Int16@value"(i16 %221), !dbg !123
  store [2 x i8] %222, [2 x i8]* %39, !dbg !123
  %223 = load [2 x i8], [2 x i8]* %39, !dbg !123
  store [2 x i8] %223, [2 x i8]* %37, !dbg !123
  %224 = call [2 x i8] @"AxUnit.ToByteArray$I@V@Int16@value"(i16 1234), !dbg !123
  store [2 x i8] %224, [2 x i8]* %40, !dbg !123
  %225 = load [2 x i8], [2 x i8]* %40, !dbg !123
  store [2 x i8] %225, [2 x i8]* %38, !dbg !123
  %226 = bitcast [2 x i8]* %37 to i8*, !dbg !123
  store %"$ax.ArrayWithBound" { i8* null, i32 1, %"$ax.ArrayBounds"* null }, %"$ax.ArrayWithBound"* %42, !dbg !123
  %"$array_ptr55" = getelementptr inbounds %"$ax.ArrayWithBound", %"$ax.ArrayWithBound"* %42, i32 0, i32 0, !dbg !123
  store i8* %226, i8** %"$array_ptr55", !dbg !123
  %"$bounds56" = getelementptr inbounds %"$ax.ArrayWithBound", %"$ax.ArrayWithBound"* %42, i32 0, i32 2, !dbg !123
  %227 = bitcast [1 x %"$ax.ArrayBounds"]* %41 to %"$ax.ArrayBounds"*, !dbg !123
  store %"$ax.ArrayBounds"* %227, %"$ax.ArrayBounds"** %"$bounds56", !dbg !123
  %228 = load %"$ax.ArrayWithBound", %"$ax.ArrayWithBound"* %42, !dbg !123
  %229 = bitcast [2 x i8]* %38 to i8*, !dbg !123
  store %"$ax.ArrayWithBound" { i8* null, i32 1, %"$ax.ArrayBounds"* null }, %"$ax.ArrayWithBound"* %44, !dbg !123
  %"$array_ptr57" = getelementptr inbounds %"$ax.ArrayWithBound", %"$ax.ArrayWithBound"* %44, i32 0, i32 0, !dbg !123
  store i8* %229, i8** %"$array_ptr57", !dbg !123
  %"$bounds58" = getelementptr inbounds %"$ax.ArrayWithBound", %"$ax.ArrayWithBound"* %44, i32 0, i32 2, !dbg !123
  %230 = bitcast [1 x %"$ax.ArrayBounds"]* %43 to %"$ax.ArrayBounds"*, !dbg !123
  store %"$ax.ArrayBounds"* %230, %"$ax.ArrayBounds"** %"$bounds58", !dbg !123
  %231 = load %"$ax.ArrayWithBound", %"$ax.ArrayWithBound"* %44, !dbg !123
  call void @"axunit_AssertLocationWriter$I@V@Int1@assertResult?I@V@UInt16@assertLocationId?I@V@Byte8@comparerTypeId?I@V@Byte8@assertDataType?I@V@axunit_assertData@assertDataLeft?I@V@axunit_assertData@assertDataRight?I@V@UInt16@lengthOfValueArray"(i1 %218, i16 5, i8 1, i8 3, %"$ax.ArrayWithBound" %228, %"$ax.ArrayWithBound" %231, i16 2), !dbg !123
  %auto_deref_this.addr59 = load %UsingDeserializer*, %UsingDeserializer** %this.addr, !dbg !124
  %key60 = getelementptr inbounds %UsingDeserializer, %UsingDeserializer* %auto_deref_this.addr59, i32 0, i32 4, !dbg !124
  %232 = bitcast %STRING.0* %key60 to i8*, !dbg !124
  call void @"$ax.AssignST_String"(i8* %232, i8* getelementptr inbounds (%"STRING[9]", %"STRING[9]"* @"$cStr.9", i32 0, i32 0)), !dbg !124
  %auto_deref_this.addr61 = load %UsingDeserializer*, %UsingDeserializer** %this.addr, !dbg !125
  %deserializer62 = getelementptr inbounds %UsingDeserializer, %UsingDeserializer* %auto_deref_this.addr61, i32 0, i32 1, !dbg !125
  %auto_deref_this.addr63 = load %UsingDeserializer*, %UsingDeserializer** %this.addr, !dbg !125
  %key64 = getelementptr inbounds %UsingDeserializer, %UsingDeserializer* %auto_deref_this.addr63, i32 0, i32 4, !dbg !125
  %233 = load i16, i16* %intValue, !dbg !125
  store i16 %233, i16* %45, !dbg !125
  %234 = bitcast %STRING.0* %key64 to i8*, !dbg !125
  %235 = getelementptr inbounds %Simatic.Ax.Json.Deserializer, %Simatic.Ax.Json.Deserializer* %deserializer62, i32 0, i32 0, !dbg !125
  %236 = load i8*, i8** %235, !dbg !125
  %237 = bitcast i8* %236 to %"$CD_Simatic.Ax.Json.Deserializer"*, !dbg !125
  %"$vTable65" = getelementptr inbounds %"$CD_Simatic.Ax.Json.Deserializer", %"$CD_Simatic.Ax.Json.Deserializer"* %237, i32 0, i32 4, !dbg !125
  %238 = getelementptr inbounds [19 x i8*], [19 x i8*]* %"$vTable65", i32 0, i32 2, !dbg !125
  %239 = load i8*, i8** %238, !dbg !125
  %240 = bitcast i8* %239 to i1 (%Simatic.Ax.Json.Deserializer*, i8*, i16*)*, !dbg !125
  %241 = call i1 %240(%Simatic.Ax.Json.Deserializer* %deserializer62, i8* %234, i16* %45), !dbg !125
  %242 = load i16, i16* %45, !dbg !125
  store i16 %242, i16* %intValue, !dbg !125
  %auto_deref_this.addr66 = load %UsingDeserializer*, %UsingDeserializer** %this.addr, !dbg !125
  %keyFound67 = getelementptr inbounds %UsingDeserializer, %UsingDeserializer* %auto_deref_this.addr66, i32 0, i32 6, !dbg !125
  store i1 %241, i1* %keyFound67, !dbg !125
  %auto_deref_this.addr68 = load %UsingDeserializer*, %UsingDeserializer** %this.addr, !dbg !126
  %keyFound69 = getelementptr inbounds %UsingDeserializer, %UsingDeserializer* %auto_deref_this.addr68, i32 0, i32 6, !dbg !126
  %243 = load i1, i1* %keyFound69, !dbg !126
  %244 = icmp eq i1 %243, false, !dbg !126
  %245 = load i1, i1* @GlobalAssertValue, !dbg !126
  %246 = and i1 %244, %245, !dbg !126
  store i1 %246, i1* @GlobalAssertValue, !dbg !126
  %247 = load i1, i1* %keyFound69, !dbg !126
  %248 = call [1 x i8] @"AxUnit.ToByteArray$I@V@Int1@value"(i1 %247), !dbg !126
  store [1 x i8] %248, [1 x i8]* %48, !dbg !126
  %249 = load [1 x i8], [1 x i8]* %48, !dbg !126
  store [1 x i8] %249, [1 x i8]* %46, !dbg !126
  %250 = call [1 x i8] @"AxUnit.ToByteArray$I@V@Int1@value"(i1 false), !dbg !126
  store [1 x i8] %250, [1 x i8]* %49, !dbg !126
  %251 = load [1 x i8], [1 x i8]* %49, !dbg !126
  store [1 x i8] %251, [1 x i8]* %47, !dbg !126
  %252 = bitcast [1 x i8]* %46 to i8*, !dbg !126
  store %"$ax.ArrayWithBound" { i8* null, i32 1, %"$ax.ArrayBounds"* null }, %"$ax.ArrayWithBound"* %51, !dbg !126
  %"$array_ptr70" = getelementptr inbounds %"$ax.ArrayWithBound", %"$ax.ArrayWithBound"* %51, i32 0, i32 0, !dbg !126
  store i8* %252, i8** %"$array_ptr70", !dbg !126
  %"$bounds71" = getelementptr inbounds %"$ax.ArrayWithBound", %"$ax.ArrayWithBound"* %51, i32 0, i32 2, !dbg !126
  %253 = bitcast [1 x %"$ax.ArrayBounds"]* %50 to %"$ax.ArrayBounds"*, !dbg !126
  store %"$ax.ArrayBounds"* %253, %"$ax.ArrayBounds"** %"$bounds71", !dbg !126
  %254 = load %"$ax.ArrayWithBound", %"$ax.ArrayWithBound"* %51, !dbg !126
  %255 = bitcast [1 x i8]* %47 to i8*, !dbg !126
  store %"$ax.ArrayWithBound" { i8* null, i32 1, %"$ax.ArrayBounds"* null }, %"$ax.ArrayWithBound"* %53, !dbg !126
  %"$array_ptr72" = getelementptr inbounds %"$ax.ArrayWithBound", %"$ax.ArrayWithBound"* %53, i32 0, i32 0, !dbg !126
  store i8* %255, i8** %"$array_ptr72", !dbg !126
  %"$bounds73" = getelementptr inbounds %"$ax.ArrayWithBound", %"$ax.ArrayWithBound"* %53, i32 0, i32 2, !dbg !126
  %256 = bitcast [1 x %"$ax.ArrayBounds"]* %52 to %"$ax.ArrayBounds"*, !dbg !126
  store %"$ax.ArrayBounds"* %256, %"$ax.ArrayBounds"** %"$bounds73", !dbg !126
  %257 = load %"$ax.ArrayWithBound", %"$ax.ArrayWithBound"* %53, !dbg !126
  call void @"axunit_AssertLocationWriter$I@V@Int1@assertResult?I@V@UInt16@assertLocationId?I@V@Byte8@comparerTypeId?I@V@Byte8@assertDataType?I@V@axunit_assertData@assertDataLeft?I@V@axunit_assertData@assertDataRight?I@V@UInt16@lengthOfValueArray"(i1 %244, i16 6, i8 1, i8 1, %"$ax.ArrayWithBound" %254, %"$ax.ArrayWithBound" %257, i16 1), !dbg !126
  %258 = load i16, i16* %intValue, !dbg !127
  %259 = icmp eq i16 %258, 0, !dbg !127
  %260 = load i1, i1* @GlobalAssertValue, !dbg !127
  %261 = and i1 %259, %260, !dbg !127
  store i1 %261, i1* @GlobalAssertValue, !dbg !127
  %262 = load i16, i16* %intValue, !dbg !127
  %263 = call [2 x i8] @"AxUnit.ToByteArray$I@V@Int16@value"(i16 %262), !dbg !127
  store [2 x i8] %263, [2 x i8]* %56, !dbg !127
  %264 = load [2 x i8], [2 x i8]* %56, !dbg !127
  store [2 x i8] %264, [2 x i8]* %54, !dbg !127
  %265 = call [2 x i8] @"AxUnit.ToByteArray$I@V@Int16@value"(i16 0), !dbg !127
  store [2 x i8] %265, [2 x i8]* %57, !dbg !127
  %266 = load [2 x i8], [2 x i8]* %57, !dbg !127
  store [2 x i8] %266, [2 x i8]* %55, !dbg !127
  %267 = bitcast [2 x i8]* %54 to i8*, !dbg !127
  store %"$ax.ArrayWithBound" { i8* null, i32 1, %"$ax.ArrayBounds"* null }, %"$ax.ArrayWithBound"* %59, !dbg !127
  %"$array_ptr74" = getelementptr inbounds %"$ax.ArrayWithBound", %"$ax.ArrayWithBound"* %59, i32 0, i32 0, !dbg !127
  store i8* %267, i8** %"$array_ptr74", !dbg !127
  %"$bounds75" = getelementptr inbounds %"$ax.ArrayWithBound", %"$ax.ArrayWithBound"* %59, i32 0, i32 2, !dbg !127
  %268 = bitcast [1 x %"$ax.ArrayBounds"]* %58 to %"$ax.ArrayBounds"*, !dbg !127
  store %"$ax.ArrayBounds"* %268, %"$ax.ArrayBounds"** %"$bounds75", !dbg !127
  %269 = load %"$ax.ArrayWithBound", %"$ax.ArrayWithBound"* %59, !dbg !127
  %270 = bitcast [2 x i8]* %55 to i8*, !dbg !127
  store %"$ax.ArrayWithBound" { i8* null, i32 1, %"$ax.ArrayBounds"* null }, %"$ax.ArrayWithBound"* %61, !dbg !127
  %"$array_ptr76" = getelementptr inbounds %"$ax.ArrayWithBound", %"$ax.ArrayWithBound"* %61, i32 0, i32 0, !dbg !127
  store i8* %270, i8** %"$array_ptr76", !dbg !127
  %"$bounds77" = getelementptr inbounds %"$ax.ArrayWithBound", %"$ax.ArrayWithBound"* %61, i32 0, i32 2, !dbg !127
  %271 = bitcast [1 x %"$ax.ArrayBounds"]* %60 to %"$ax.ArrayBounds"*, !dbg !127
  store %"$ax.ArrayBounds"* %271, %"$ax.ArrayBounds"** %"$bounds77", !dbg !127
  %272 = load %"$ax.ArrayWithBound", %"$ax.ArrayWithBound"* %61, !dbg !127
  call void @"axunit_AssertLocationWriter$I@V@Int1@assertResult?I@V@UInt16@assertLocationId?I@V@Byte8@comparerTypeId?I@V@Byte8@assertDataType?I@V@axunit_assertData@assertDataLeft?I@V@axunit_assertData@assertDataRight?I@V@UInt16@lengthOfValueArray"(i1 %259, i16 7, i8 1, i8 3, %"$ax.ArrayWithBound" %269, %"$ax.ArrayWithBound" %272, i16 2), !dbg !127
  %auto_deref_this.addr78 = load %UsingDeserializer*, %UsingDeserializer** %this.addr, !dbg !128
  %key79 = getelementptr inbounds %UsingDeserializer, %UsingDeserializer* %auto_deref_this.addr78, i32 0, i32 4, !dbg !128
  %273 = bitcast %STRING.0* %key79 to i8*, !dbg !128
  call void @"$ax.AssignST_String"(i8* %273, i8* getelementptr inbounds (%"STRING[4]", %"STRING[4]"* @"$cStr.10", i32 0, i32 0)), !dbg !128
  %auto_deref_this.addr80 = load %UsingDeserializer*, %UsingDeserializer** %this.addr, !dbg !129
  %deserializer81 = getelementptr inbounds %UsingDeserializer, %UsingDeserializer* %auto_deref_this.addr80, i32 0, i32 1, !dbg !129
  %auto_deref_this.addr82 = load %UsingDeserializer*, %UsingDeserializer** %this.addr, !dbg !129
  %key83 = getelementptr inbounds %UsingDeserializer, %UsingDeserializer* %auto_deref_this.addr82, i32 0, i32 4, !dbg !129
  %274 = bitcast %STRING.0* %62 to i8*, !dbg !129
  %275 = bitcast %STRING.0* %stringValue to i8*, !dbg !129
  call void @"$ax.AssignST_String"(i8* %274, i8* %275), !dbg !129
  %276 = bitcast %STRING.0* %key83 to i8*, !dbg !129
  %277 = bitcast %STRING.0* %62 to i8*, !dbg !129
  %278 = getelementptr inbounds %Simatic.Ax.Json.Deserializer, %Simatic.Ax.Json.Deserializer* %deserializer81, i32 0, i32 0, !dbg !129
  %279 = load i8*, i8** %278, !dbg !129
  %280 = bitcast i8* %279 to %"$CD_Simatic.Ax.Json.Deserializer"*, !dbg !129
  %"$vTable84" = getelementptr inbounds %"$CD_Simatic.Ax.Json.Deserializer", %"$CD_Simatic.Ax.Json.Deserializer"* %280, i32 0, i32 4, !dbg !129
  %281 = getelementptr inbounds [19 x i8*], [19 x i8*]* %"$vTable84", i32 0, i32 5, !dbg !129
  %282 = load i8*, i8** %281, !dbg !129
  %283 = bitcast i8* %282 to i1 (%Simatic.Ax.Json.Deserializer*, i8*, i8*)*, !dbg !129
  %284 = call i1 %283(%Simatic.Ax.Json.Deserializer* %deserializer81, i8* %276, i8* %277), !dbg !129
  %285 = bitcast %STRING.0* %stringValue to i8*, !dbg !129
  %286 = bitcast %STRING.0* %62 to i8*, !dbg !129
  call void @"$ax.AssignST_String"(i8* %285, i8* %286), !dbg !129
  %auto_deref_this.addr85 = load %UsingDeserializer*, %UsingDeserializer** %this.addr, !dbg !129
  %keyFound86 = getelementptr inbounds %UsingDeserializer, %UsingDeserializer* %auto_deref_this.addr85, i32 0, i32 6, !dbg !129
  store i1 %284, i1* %keyFound86, !dbg !129
  %auto_deref_this.addr87 = load %UsingDeserializer*, %UsingDeserializer** %this.addr, !dbg !130
  %keyFound88 = getelementptr inbounds %UsingDeserializer, %UsingDeserializer* %auto_deref_this.addr87, i32 0, i32 6, !dbg !130
  %287 = load i1, i1* %keyFound88, !dbg !130
  %288 = icmp eq i1 %287, true, !dbg !130
  %289 = load i1, i1* @GlobalAssertValue, !dbg !130
  %290 = and i1 %288, %289, !dbg !130
  store i1 %290, i1* @GlobalAssertValue, !dbg !130
  %291 = load i1, i1* %keyFound88, !dbg !130
  %292 = call [1 x i8] @"AxUnit.ToByteArray$I@V@Int1@value"(i1 %291), !dbg !130
  store [1 x i8] %292, [1 x i8]* %65, !dbg !130
  %293 = load [1 x i8], [1 x i8]* %65, !dbg !130
  store [1 x i8] %293, [1 x i8]* %63, !dbg !130
  %294 = call [1 x i8] @"AxUnit.ToByteArray$I@V@Int1@value"(i1 true), !dbg !130
  store [1 x i8] %294, [1 x i8]* %66, !dbg !130
  %295 = load [1 x i8], [1 x i8]* %66, !dbg !130
  store [1 x i8] %295, [1 x i8]* %64, !dbg !130
  %296 = bitcast [1 x i8]* %63 to i8*, !dbg !130
  store %"$ax.ArrayWithBound" { i8* null, i32 1, %"$ax.ArrayBounds"* null }, %"$ax.ArrayWithBound"* %68, !dbg !130
  %"$array_ptr89" = getelementptr inbounds %"$ax.ArrayWithBound", %"$ax.ArrayWithBound"* %68, i32 0, i32 0, !dbg !130
  store i8* %296, i8** %"$array_ptr89", !dbg !130
  %"$bounds90" = getelementptr inbounds %"$ax.ArrayWithBound", %"$ax.ArrayWithBound"* %68, i32 0, i32 2, !dbg !130
  %297 = bitcast [1 x %"$ax.ArrayBounds"]* %67 to %"$ax.ArrayBounds"*, !dbg !130
  store %"$ax.ArrayBounds"* %297, %"$ax.ArrayBounds"** %"$bounds90", !dbg !130
  %298 = load %"$ax.ArrayWithBound", %"$ax.ArrayWithBound"* %68, !dbg !130
  %299 = bitcast [1 x i8]* %64 to i8*, !dbg !130
  store %"$ax.ArrayWithBound" { i8* null, i32 1, %"$ax.ArrayBounds"* null }, %"$ax.ArrayWithBound"* %70, !dbg !130
  %"$array_ptr91" = getelementptr inbounds %"$ax.ArrayWithBound", %"$ax.ArrayWithBound"* %70, i32 0, i32 0, !dbg !130
  store i8* %299, i8** %"$array_ptr91", !dbg !130
  %"$bounds92" = getelementptr inbounds %"$ax.ArrayWithBound", %"$ax.ArrayWithBound"* %70, i32 0, i32 2, !dbg !130
  %300 = bitcast [1 x %"$ax.ArrayBounds"]* %69 to %"$ax.ArrayBounds"*, !dbg !130
  store %"$ax.ArrayBounds"* %300, %"$ax.ArrayBounds"** %"$bounds92", !dbg !130
  %301 = load %"$ax.ArrayWithBound", %"$ax.ArrayWithBound"* %70, !dbg !130
  call void @"axunit_AssertLocationWriter$I@V@Int1@assertResult?I@V@UInt16@assertLocationId?I@V@Byte8@comparerTypeId?I@V@Byte8@assertDataType?I@V@axunit_assertData@assertDataLeft?I@V@axunit_assertData@assertDataRight?I@V@UInt16@lengthOfValueArray"(i1 %288, i16 8, i8 1, i8 1, %"$ax.ArrayWithBound" %298, %"$ax.ArrayWithBound" %301, i16 1), !dbg !130
  %302 = bitcast %STRING.0* %stringValue to i8*, !dbg !131
  %303 = call i32 @"$ax.CmpST_String"(i8* %302, i8* getelementptr inbounds (%"STRING[2]", %"STRING[2]"* @"$cStr.11", i32 0, i32 0)), !dbg !131
  %304 = icmp eq i32 %303, 0, !dbg !131
  %305 = load i1, i1* @GlobalAssertValue, !dbg !131
  %306 = and i1 %304, %305, !dbg !131
  store i1 %306, i1* @GlobalAssertValue, !dbg !131
  call void @"axunit_AssertLocationWriter$I@V@Int1@assertResult?I@V@UInt16@assertLocationId?I@V@Byte8@comparerTypeId?I@V@Byte8@assertDataType"(i1 %304, i16 9, i8 1, i8 0), !dbg !131
  %auto_deref_this.addr93 = load %UsingDeserializer*, %UsingDeserializer** %this.addr, !dbg !132
  %key94 = getelementptr inbounds %UsingDeserializer, %UsingDeserializer* %auto_deref_this.addr93, i32 0, i32 4, !dbg !132
  %307 = bitcast %STRING.0* %key94 to i8*, !dbg !132
  call void @"$ax.AssignST_String"(i8* %307, i8* getelementptr inbounds (%"STRING[4]", %"STRING[4]"* @"$cStr.12", i32 0, i32 0)), !dbg !132
  %auto_deref_this.addr95 = load %UsingDeserializer*, %UsingDeserializer** %this.addr, !dbg !133
  %deserializer96 = getelementptr inbounds %UsingDeserializer, %UsingDeserializer* %auto_deref_this.addr95, i32 0, i32 1, !dbg !133
  %auto_deref_this.addr97 = load %UsingDeserializer*, %UsingDeserializer** %this.addr, !dbg !133
  %key98 = getelementptr inbounds %UsingDeserializer, %UsingDeserializer* %auto_deref_this.addr97, i32 0, i32 4, !dbg !133
  %308 = load i16, i16* %intValue, !dbg !133
  store i16 %308, i16* %71, !dbg !133
  %309 = bitcast %STRING.0* %key98 to i8*, !dbg !133
  %310 = getelementptr inbounds %Simatic.Ax.Json.Deserializer, %Simatic.Ax.Json.Deserializer* %deserializer96, i32 0, i32 0, !dbg !133
  %311 = load i8*, i8** %310, !dbg !133
  %312 = bitcast i8* %311 to %"$CD_Simatic.Ax.Json.Deserializer"*, !dbg !133
  %"$vTable99" = getelementptr inbounds %"$CD_Simatic.Ax.Json.Deserializer", %"$CD_Simatic.Ax.Json.Deserializer"* %312, i32 0, i32 4, !dbg !133
  %313 = getelementptr inbounds [19 x i8*], [19 x i8*]* %"$vTable99", i32 0, i32 2, !dbg !133
  %314 = load i8*, i8** %313, !dbg !133
  %315 = bitcast i8* %314 to i1 (%Simatic.Ax.Json.Deserializer*, i8*, i16*)*, !dbg !133
  %316 = call i1 %315(%Simatic.Ax.Json.Deserializer* %deserializer96, i8* %309, i16* %71), !dbg !133
  %317 = load i16, i16* %71, !dbg !133
  store i16 %317, i16* %intValue, !dbg !133
  %auto_deref_this.addr100 = load %UsingDeserializer*, %UsingDeserializer** %this.addr, !dbg !133
  %keyFound101 = getelementptr inbounds %UsingDeserializer, %UsingDeserializer* %auto_deref_this.addr100, i32 0, i32 6, !dbg !133
  store i1 %316, i1* %keyFound101, !dbg !133
  %auto_deref_this.addr102 = load %UsingDeserializer*, %UsingDeserializer** %this.addr, !dbg !134
  %keyFound103 = getelementptr inbounds %UsingDeserializer, %UsingDeserializer* %auto_deref_this.addr102, i32 0, i32 6, !dbg !134
  %318 = load i1, i1* %keyFound103, !dbg !134
  %319 = icmp eq i1 %318, true, !dbg !134
  %320 = load i1, i1* @GlobalAssertValue, !dbg !134
  %321 = and i1 %319, %320, !dbg !134
  store i1 %321, i1* @GlobalAssertValue, !dbg !134
  %322 = load i1, i1* %keyFound103, !dbg !134
  %323 = call [1 x i8] @"AxUnit.ToByteArray$I@V@Int1@value"(i1 %322), !dbg !134
  store [1 x i8] %323, [1 x i8]* %74, !dbg !134
  %324 = load [1 x i8], [1 x i8]* %74, !dbg !134
  store [1 x i8] %324, [1 x i8]* %72, !dbg !134
  %325 = call [1 x i8] @"AxUnit.ToByteArray$I@V@Int1@value"(i1 true), !dbg !134
  store [1 x i8] %325, [1 x i8]* %75, !dbg !134
  %326 = load [1 x i8], [1 x i8]* %75, !dbg !134
  store [1 x i8] %326, [1 x i8]* %73, !dbg !134
  %327 = bitcast [1 x i8]* %72 to i8*, !dbg !134
  store %"$ax.ArrayWithBound" { i8* null, i32 1, %"$ax.ArrayBounds"* null }, %"$ax.ArrayWithBound"* %77, !dbg !134
  %"$array_ptr104" = getelementptr inbounds %"$ax.ArrayWithBound", %"$ax.ArrayWithBound"* %77, i32 0, i32 0, !dbg !134
  store i8* %327, i8** %"$array_ptr104", !dbg !134
  %"$bounds105" = getelementptr inbounds %"$ax.ArrayWithBound", %"$ax.ArrayWithBound"* %77, i32 0, i32 2, !dbg !134
  %328 = bitcast [1 x %"$ax.ArrayBounds"]* %76 to %"$ax.ArrayBounds"*, !dbg !134
  store %"$ax.ArrayBounds"* %328, %"$ax.ArrayBounds"** %"$bounds105", !dbg !134
  %329 = load %"$ax.ArrayWithBound", %"$ax.ArrayWithBound"* %77, !dbg !134
  %330 = bitcast [1 x i8]* %73 to i8*, !dbg !134
  store %"$ax.ArrayWithBound" { i8* null, i32 1, %"$ax.ArrayBounds"* null }, %"$ax.ArrayWithBound"* %79, !dbg !134
  %"$array_ptr106" = getelementptr inbounds %"$ax.ArrayWithBound", %"$ax.ArrayWithBound"* %79, i32 0, i32 0, !dbg !134
  store i8* %330, i8** %"$array_ptr106", !dbg !134
  %"$bounds107" = getelementptr inbounds %"$ax.ArrayWithBound", %"$ax.ArrayWithBound"* %79, i32 0, i32 2, !dbg !134
  %331 = bitcast [1 x %"$ax.ArrayBounds"]* %78 to %"$ax.ArrayBounds"*, !dbg !134
  store %"$ax.ArrayBounds"* %331, %"$ax.ArrayBounds"** %"$bounds107", !dbg !134
  %332 = load %"$ax.ArrayWithBound", %"$ax.ArrayWithBound"* %79, !dbg !134
  call void @"axunit_AssertLocationWriter$I@V@Int1@assertResult?I@V@UInt16@assertLocationId?I@V@Byte8@comparerTypeId?I@V@Byte8@assertDataType?I@V@axunit_assertData@assertDataLeft?I@V@axunit_assertData@assertDataRight?I@V@UInt16@lengthOfValueArray"(i1 %319, i16 10, i8 1, i8 1, %"$ax.ArrayWithBound" %329, %"$ax.ArrayWithBound" %332, i16 1), !dbg !134
  %333 = load i16, i16* %intValue, !dbg !135
  %334 = icmp eq i16 %333, 1234, !dbg !135
  %335 = load i1, i1* @GlobalAssertValue, !dbg !135
  %336 = and i1 %334, %335, !dbg !135
  store i1 %336, i1* @GlobalAssertValue, !dbg !135
  %337 = load i16, i16* %intValue, !dbg !135
  %338 = call [2 x i8] @"AxUnit.ToByteArray$I@V@Int16@value"(i16 %337), !dbg !135
  store [2 x i8] %338, [2 x i8]* %82, !dbg !135
  %339 = load [2 x i8], [2 x i8]* %82, !dbg !135
  store [2 x i8] %339, [2 x i8]* %80, !dbg !135
  %340 = call [2 x i8] @"AxUnit.ToByteArray$I@V@Int16@value"(i16 1234), !dbg !135
  store [2 x i8] %340, [2 x i8]* %83, !dbg !135
  %341 = load [2 x i8], [2 x i8]* %83, !dbg !135
  store [2 x i8] %341, [2 x i8]* %81, !dbg !135
  %342 = bitcast [2 x i8]* %80 to i8*, !dbg !135
  store %"$ax.ArrayWithBound" { i8* null, i32 1, %"$ax.ArrayBounds"* null }, %"$ax.ArrayWithBound"* %85, !dbg !135
  %"$array_ptr108" = getelementptr inbounds %"$ax.ArrayWithBound", %"$ax.ArrayWithBound"* %85, i32 0, i32 0, !dbg !135
  store i8* %342, i8** %"$array_ptr108", !dbg !135
  %"$bounds109" = getelementptr inbounds %"$ax.ArrayWithBound", %"$ax.ArrayWithBound"* %85, i32 0, i32 2, !dbg !135
  %343 = bitcast [1 x %"$ax.ArrayBounds"]* %84 to %"$ax.ArrayBounds"*, !dbg !135
  store %"$ax.ArrayBounds"* %343, %"$ax.ArrayBounds"** %"$bounds109", !dbg !135
  %344 = load %"$ax.ArrayWithBound", %"$ax.ArrayWithBound"* %85, !dbg !135
  %345 = bitcast [2 x i8]* %81 to i8*, !dbg !135
  store %"$ax.ArrayWithBound" { i8* null, i32 1, %"$ax.ArrayBounds"* null }, %"$ax.ArrayWithBound"* %87, !dbg !135
  %"$array_ptr110" = getelementptr inbounds %"$ax.ArrayWithBound", %"$ax.ArrayWithBound"* %87, i32 0, i32 0, !dbg !135
  store i8* %345, i8** %"$array_ptr110", !dbg !135
  %"$bounds111" = getelementptr inbounds %"$ax.ArrayWithBound", %"$ax.ArrayWithBound"* %87, i32 0, i32 2, !dbg !135
  %346 = bitcast [1 x %"$ax.ArrayBounds"]* %86 to %"$ax.ArrayBounds"*, !dbg !135
  store %"$ax.ArrayBounds"* %346, %"$ax.ArrayBounds"** %"$bounds111", !dbg !135
  %347 = load %"$ax.ArrayWithBound", %"$ax.ArrayWithBound"* %87, !dbg !135
  call void @"axunit_AssertLocationWriter$I@V@Int1@assertResult?I@V@UInt16@assertLocationId?I@V@Byte8@comparerTypeId?I@V@Byte8@assertDataType?I@V@axunit_assertData@assertDataLeft?I@V@axunit_assertData@assertDataRight?I@V@UInt16@lengthOfValueArray"(i1 %334, i16 11, i8 1, i8 3, %"$ax.ArrayWithBound" %344, %"$ax.ArrayWithBound" %347, i16 2), !dbg !135
  %auto_deref_this.addr112 = load %UsingDeserializer*, %UsingDeserializer** %this.addr, !dbg !136
  %key113 = getelementptr inbounds %UsingDeserializer, %UsingDeserializer* %auto_deref_this.addr112, i32 0, i32 4, !dbg !136
  %348 = bitcast %STRING.0* %key113 to i8*, !dbg !136
  call void @"$ax.AssignST_String"(i8* %348, i8* getelementptr inbounds (%"STRING[4]", %"STRING[4]"* @"$cStr.13", i32 0, i32 0)), !dbg !136
  %auto_deref_this.addr114 = load %UsingDeserializer*, %UsingDeserializer** %this.addr, !dbg !137
  %deserializer115 = getelementptr inbounds %UsingDeserializer, %UsingDeserializer* %auto_deref_this.addr114, i32 0, i32 1, !dbg !137
  %auto_deref_this.addr116 = load %UsingDeserializer*, %UsingDeserializer** %this.addr, !dbg !137
  %key117 = getelementptr inbounds %UsingDeserializer, %UsingDeserializer* %auto_deref_this.addr116, i32 0, i32 4, !dbg !137
  %349 = load i16, i16* %intValue, !dbg !137
  store i16 %349, i16* %88, !dbg !137
  %350 = bitcast %STRING.0* %key117 to i8*, !dbg !137
  %351 = getelementptr inbounds %Simatic.Ax.Json.Deserializer, %Simatic.Ax.Json.Deserializer* %deserializer115, i32 0, i32 0, !dbg !137
  %352 = load i8*, i8** %351, !dbg !137
  %353 = bitcast i8* %352 to %"$CD_Simatic.Ax.Json.Deserializer"*, !dbg !137
  %"$vTable118" = getelementptr inbounds %"$CD_Simatic.Ax.Json.Deserializer", %"$CD_Simatic.Ax.Json.Deserializer"* %353, i32 0, i32 4, !dbg !137
  %354 = getelementptr inbounds [19 x i8*], [19 x i8*]* %"$vTable118", i32 0, i32 2, !dbg !137
  %355 = load i8*, i8** %354, !dbg !137
  %356 = bitcast i8* %355 to i1 (%Simatic.Ax.Json.Deserializer*, i8*, i16*)*, !dbg !137
  %357 = call i1 %356(%Simatic.Ax.Json.Deserializer* %deserializer115, i8* %350, i16* %88), !dbg !137
  %358 = load i16, i16* %88, !dbg !137
  store i16 %358, i16* %intValue, !dbg !137
  %auto_deref_this.addr119 = load %UsingDeserializer*, %UsingDeserializer** %this.addr, !dbg !137
  %keyFound120 = getelementptr inbounds %UsingDeserializer, %UsingDeserializer* %auto_deref_this.addr119, i32 0, i32 6, !dbg !137
  store i1 %357, i1* %keyFound120, !dbg !137
  %auto_deref_this.addr121 = load %UsingDeserializer*, %UsingDeserializer** %this.addr, !dbg !138
  %keyFound122 = getelementptr inbounds %UsingDeserializer, %UsingDeserializer* %auto_deref_this.addr121, i32 0, i32 6, !dbg !138
  %359 = load i1, i1* %keyFound122, !dbg !138
  %360 = icmp eq i1 %359, false, !dbg !138
  %361 = load i1, i1* @GlobalAssertValue, !dbg !138
  %362 = and i1 %360, %361, !dbg !138
  store i1 %362, i1* @GlobalAssertValue, !dbg !138
  %363 = load i1, i1* %keyFound122, !dbg !138
  %364 = call [1 x i8] @"AxUnit.ToByteArray$I@V@Int1@value"(i1 %363), !dbg !138
  store [1 x i8] %364, [1 x i8]* %91, !dbg !138
  %365 = load [1 x i8], [1 x i8]* %91, !dbg !138
  store [1 x i8] %365, [1 x i8]* %89, !dbg !138
  %366 = call [1 x i8] @"AxUnit.ToByteArray$I@V@Int1@value"(i1 false), !dbg !138
  store [1 x i8] %366, [1 x i8]* %92, !dbg !138
  %367 = load [1 x i8], [1 x i8]* %92, !dbg !138
  store [1 x i8] %367, [1 x i8]* %90, !dbg !138
  %368 = bitcast [1 x i8]* %89 to i8*, !dbg !138
  store %"$ax.ArrayWithBound" { i8* null, i32 1, %"$ax.ArrayBounds"* null }, %"$ax.ArrayWithBound"* %94, !dbg !138
  %"$array_ptr123" = getelementptr inbounds %"$ax.ArrayWithBound", %"$ax.ArrayWithBound"* %94, i32 0, i32 0, !dbg !138
  store i8* %368, i8** %"$array_ptr123", !dbg !138
  %"$bounds124" = getelementptr inbounds %"$ax.ArrayWithBound", %"$ax.ArrayWithBound"* %94, i32 0, i32 2, !dbg !138
  %369 = bitcast [1 x %"$ax.ArrayBounds"]* %93 to %"$ax.ArrayBounds"*, !dbg !138
  store %"$ax.ArrayBounds"* %369, %"$ax.ArrayBounds"** %"$bounds124", !dbg !138
  %370 = load %"$ax.ArrayWithBound", %"$ax.ArrayWithBound"* %94, !dbg !138
  %371 = bitcast [1 x i8]* %90 to i8*, !dbg !138
  store %"$ax.ArrayWithBound" { i8* null, i32 1, %"$ax.ArrayBounds"* null }, %"$ax.ArrayWithBound"* %96, !dbg !138
  %"$array_ptr125" = getelementptr inbounds %"$ax.ArrayWithBound", %"$ax.ArrayWithBound"* %96, i32 0, i32 0, !dbg !138
  store i8* %371, i8** %"$array_ptr125", !dbg !138
  %"$bounds126" = getelementptr inbounds %"$ax.ArrayWithBound", %"$ax.ArrayWithBound"* %96, i32 0, i32 2, !dbg !138
  %372 = bitcast [1 x %"$ax.ArrayBounds"]* %95 to %"$ax.ArrayBounds"*, !dbg !138
  store %"$ax.ArrayBounds"* %372, %"$ax.ArrayBounds"** %"$bounds126", !dbg !138
  %373 = load %"$ax.ArrayWithBound", %"$ax.ArrayWithBound"* %96, !dbg !138
  call void @"axunit_AssertLocationWriter$I@V@Int1@assertResult?I@V@UInt16@assertLocationId?I@V@Byte8@comparerTypeId?I@V@Byte8@assertDataType?I@V@axunit_assertData@assertDataLeft?I@V@axunit_assertData@assertDataRight?I@V@UInt16@lengthOfValueArray"(i1 %360, i16 12, i8 1, i8 1, %"$ax.ArrayWithBound" %370, %"$ax.ArrayWithBound" %373, i16 1), !dbg !138
  %374 = load i16, i16* %intValue, !dbg !139
  %375 = icmp eq i16 %374, 0, !dbg !139
  %376 = load i1, i1* @GlobalAssertValue, !dbg !139
  %377 = and i1 %375, %376, !dbg !139
  store i1 %377, i1* @GlobalAssertValue, !dbg !139
  %378 = load i16, i16* %intValue, !dbg !139
  %379 = call [2 x i8] @"AxUnit.ToByteArray$I@V@Int16@value"(i16 %378), !dbg !139
  store [2 x i8] %379, [2 x i8]* %99, !dbg !139
  %380 = load [2 x i8], [2 x i8]* %99, !dbg !139
  store [2 x i8] %380, [2 x i8]* %97, !dbg !139
  %381 = call [2 x i8] @"AxUnit.ToByteArray$I@V@Int16@value"(i16 0), !dbg !139
  store [2 x i8] %381, [2 x i8]* %100, !dbg !139
  %382 = load [2 x i8], [2 x i8]* %100, !dbg !139
  store [2 x i8] %382, [2 x i8]* %98, !dbg !139
  %383 = bitcast [2 x i8]* %97 to i8*, !dbg !139
  store %"$ax.ArrayWithBound" { i8* null, i32 1, %"$ax.ArrayBounds"* null }, %"$ax.ArrayWithBound"* %102, !dbg !139
  %"$array_ptr127" = getelementptr inbounds %"$ax.ArrayWithBound", %"$ax.ArrayWithBound"* %102, i32 0, i32 0, !dbg !139
  store i8* %383, i8** %"$array_ptr127", !dbg !139
  %"$bounds128" = getelementptr inbounds %"$ax.ArrayWithBound", %"$ax.ArrayWithBound"* %102, i32 0, i32 2, !dbg !139
  %384 = bitcast [1 x %"$ax.ArrayBounds"]* %101 to %"$ax.ArrayBounds"*, !dbg !139
  store %"$ax.ArrayBounds"* %384, %"$ax.ArrayBounds"** %"$bounds128", !dbg !139
  %385 = load %"$ax.ArrayWithBound", %"$ax.ArrayWithBound"* %102, !dbg !139
  %386 = bitcast [2 x i8]* %98 to i8*, !dbg !139
  store %"$ax.ArrayWithBound" { i8* null, i32 1, %"$ax.ArrayBounds"* null }, %"$ax.ArrayWithBound"* %104, !dbg !139
  %"$array_ptr129" = getelementptr inbounds %"$ax.ArrayWithBound", %"$ax.ArrayWithBound"* %104, i32 0, i32 0, !dbg !139
  store i8* %386, i8** %"$array_ptr129", !dbg !139
  %"$bounds130" = getelementptr inbounds %"$ax.ArrayWithBound", %"$ax.ArrayWithBound"* %104, i32 0, i32 2, !dbg !139
  %387 = bitcast [1 x %"$ax.ArrayBounds"]* %103 to %"$ax.ArrayBounds"*, !dbg !139
  store %"$ax.ArrayBounds"* %387, %"$ax.ArrayBounds"** %"$bounds130", !dbg !139
  %388 = load %"$ax.ArrayWithBound", %"$ax.ArrayWithBound"* %104, !dbg !139
  call void @"axunit_AssertLocationWriter$I@V@Int1@assertResult?I@V@UInt16@assertLocationId?I@V@Byte8@comparerTypeId?I@V@Byte8@assertDataType?I@V@axunit_assertData@assertDataLeft?I@V@axunit_assertData@assertDataRight?I@V@UInt16@lengthOfValueArray"(i1 %375, i16 13, i8 1, i8 3, %"$ax.ArrayWithBound" %385, %"$ax.ArrayWithBound" %388, i16 2), !dbg !139
  ret void, !dbg !140
}

define void @"UsingDeserializer.GetValue_ARRAY$I@R@UsingDeserializer@this"(%UsingDeserializer* %this) !dbg !141 {
Entry:
  %this.addr = alloca %UsingDeserializer*
  %stringValue = alloca %STRING.0
  call void @llvm.dbg.declare(metadata %UsingDeserializer** %this.addr, metadata !142, metadata !DIExpression()), !dbg !143
  call void @llvm.dbg.declare(metadata %STRING.0* %stringValue, metadata !144, metadata !DIExpression()), !dbg !145
  %0 = alloca [1 x %"$ax.ArrayBounds"]
  store [1 x %"$ax.ArrayBounds"] [%"$ax.ArrayBounds" { i32 0, i32 999, i32 1 }], [1 x %"$ax.ArrayBounds"]* %0
  %1 = alloca %"$ax.ArrayWithBound"
  %2 = alloca %STRING.0
  store %STRING.0 { i8 -2, i8 0, [255 x i8] zeroinitializer }, %STRING.0* %2
  %3 = alloca [1 x i8]
  store [1 x i8] zeroinitializer, [1 x i8]* %3
  %4 = alloca [1 x i8]
  store [1 x i8] zeroinitializer, [1 x i8]* %4
  %5 = alloca [1 x i8]
  %6 = alloca [1 x i8]
  %7 = alloca [1 x %"$ax.ArrayBounds"]
  store [1 x %"$ax.ArrayBounds"] [%"$ax.ArrayBounds" { i32 0, i32 0, i32 1 }], [1 x %"$ax.ArrayBounds"]* %7
  %8 = alloca %"$ax.ArrayWithBound"
  %9 = alloca [1 x %"$ax.ArrayBounds"]
  store [1 x %"$ax.ArrayBounds"] [%"$ax.ArrayBounds" { i32 0, i32 0, i32 1 }], [1 x %"$ax.ArrayBounds"]* %9
  %10 = alloca %"$ax.ArrayWithBound"
  store %UsingDeserializer* %this, %UsingDeserializer** %this.addr
  store %STRING.0 { i8 -2, i8 0, [255 x i8] zeroinitializer }, %STRING.0* %stringValue
  br label %bb1

bb1:                                              ; preds = %Entry
  %auto_deref_this.addr = load %UsingDeserializer*, %UsingDeserializer** %this.addr, !dbg !146
  %JSON_Entry = getelementptr inbounds %UsingDeserializer, %UsingDeserializer* %auto_deref_this.addr, i32 0, i32 3, !dbg !146
  %11 = bitcast %STRING.0* %JSON_Entry to i8*, !dbg !146
  call void @"$ax.AssignST_String"(i8* %11, i8* getelementptr inbounds (%"STRING[27]", %"STRING[27]"* @"$cStr.14", i32 0, i32 0)), !dbg !146
  %auto_deref_this.addr1 = load %UsingDeserializer*, %UsingDeserializer** %this.addr, !dbg !147
  %JSON_Entry2 = getelementptr inbounds %UsingDeserializer, %UsingDeserializer* %auto_deref_this.addr1, i32 0, i32 3, !dbg !147
  %auto_deref_this.addr3 = load %UsingDeserializer*, %UsingDeserializer** %this.addr, !dbg !147
  %buffer = getelementptr inbounds %UsingDeserializer, %UsingDeserializer* %auto_deref_this.addr3, i32 0, i32 2, !dbg !147
  %12 = bitcast %STRING.0* %JSON_Entry2 to i8*, !dbg !147
  %13 = bitcast [1000 x i8]* %buffer to i8*, !dbg !147
  store %"$ax.ArrayWithBound" { i8* null, i32 1, %"$ax.ArrayBounds"* null }, %"$ax.ArrayWithBound"* %1, !dbg !147
  %"$array_ptr" = getelementptr inbounds %"$ax.ArrayWithBound", %"$ax.ArrayWithBound"* %1, i32 0, i32 0, !dbg !147
  store i8* %13, i8** %"$array_ptr", !dbg !147
  %"$bounds" = getelementptr inbounds %"$ax.ArrayWithBound", %"$ax.ArrayWithBound"* %1, i32 0, i32 2, !dbg !147
  %14 = bitcast [1 x %"$ax.ArrayBounds"]* %0 to %"$ax.ArrayBounds"*, !dbg !147
  store %"$ax.ArrayBounds"* %14, %"$ax.ArrayBounds"** %"$bounds", !dbg !147
  %15 = call i32 @"Simatic.Ax.Conversion.Strings.ToArray$I@V@STRING@str?I@R@ARRAY [*] OF CHAR@arr"(i8* %12, %"$ax.ArrayWithBound"* %1), !dbg !147
  %auto_deref_this.addr4 = load %UsingDeserializer*, %UsingDeserializer** %this.addr, !dbg !147
  %len = getelementptr inbounds %UsingDeserializer, %UsingDeserializer* %auto_deref_this.addr4, i32 0, i32 5, !dbg !147
  store i32 %15, i32* %len, !dbg !147
  %auto_deref_this.addr5 = load %UsingDeserializer*, %UsingDeserializer** %this.addr, !dbg !148
  %deserializer = getelementptr inbounds %UsingDeserializer, %UsingDeserializer* %auto_deref_this.addr5, i32 0, i32 1, !dbg !148
  %auto_deref_this.addr6 = load %UsingDeserializer*, %UsingDeserializer** %this.addr, !dbg !148
  %buffer7 = getelementptr inbounds %UsingDeserializer, %UsingDeserializer* %auto_deref_this.addr6, i32 0, i32 2, !dbg !148
  %16 = getelementptr inbounds %Simatic.Ax.Json.Deserializer, %Simatic.Ax.Json.Deserializer* %deserializer, i32 0, i32 0, !dbg !148
  %17 = load i8*, i8** %16, !dbg !148
  %18 = bitcast i8* %17 to %"$CD_Simatic.Ax.Json.Deserializer"*, !dbg !148
  %"$vTable" = getelementptr inbounds %"$CD_Simatic.Ax.Json.Deserializer", %"$CD_Simatic.Ax.Json.Deserializer"* %18, i32 0, i32 4, !dbg !148
  %19 = getelementptr inbounds [19 x i8*], [19 x i8*]* %"$vTable", i32 0, i32 0, !dbg !148
  %20 = load i8*, i8** %19, !dbg !148
  %21 = bitcast i8* %20 to void (%Simatic.Ax.Json.Deserializer*, [1000 x i8]*)*, !dbg !148
  call void %21(%Simatic.Ax.Json.Deserializer* %deserializer, [1000 x i8]* %buffer7), !dbg !148
  %auto_deref_this.addr8 = load %UsingDeserializer*, %UsingDeserializer** %this.addr, !dbg !149
  %key = getelementptr inbounds %UsingDeserializer, %UsingDeserializer* %auto_deref_this.addr8, i32 0, i32 4, !dbg !149
  %22 = bitcast %STRING.0* %key to i8*, !dbg !149
  call void @"$ax.AssignST_String"(i8* %22, i8* getelementptr inbounds (%"STRING[8]", %"STRING[8]"* @"$cStr.15", i32 0, i32 0)), !dbg !149
  %auto_deref_this.addr9 = load %UsingDeserializer*, %UsingDeserializer** %this.addr, !dbg !150
  %deserializer10 = getelementptr inbounds %UsingDeserializer, %UsingDeserializer* %auto_deref_this.addr9, i32 0, i32 1, !dbg !150
  %auto_deref_this.addr11 = load %UsingDeserializer*, %UsingDeserializer** %this.addr, !dbg !150
  %key12 = getelementptr inbounds %UsingDeserializer, %UsingDeserializer* %auto_deref_this.addr11, i32 0, i32 4, !dbg !150
  %23 = bitcast %STRING.0* %2 to i8*, !dbg !150
  %24 = bitcast %STRING.0* %stringValue to i8*, !dbg !150
  call void @"$ax.AssignST_String"(i8* %23, i8* %24), !dbg !150
  %25 = bitcast %STRING.0* %key12 to i8*, !dbg !150
  %26 = bitcast %STRING.0* %2 to i8*, !dbg !150
  %27 = getelementptr inbounds %Simatic.Ax.Json.Deserializer, %Simatic.Ax.Json.Deserializer* %deserializer10, i32 0, i32 0, !dbg !150
  %28 = load i8*, i8** %27, !dbg !150
  %29 = bitcast i8* %28 to %"$CD_Simatic.Ax.Json.Deserializer"*, !dbg !150
  %"$vTable13" = getelementptr inbounds %"$CD_Simatic.Ax.Json.Deserializer", %"$CD_Simatic.Ax.Json.Deserializer"* %29, i32 0, i32 4, !dbg !150
  %30 = getelementptr inbounds [19 x i8*], [19 x i8*]* %"$vTable13", i32 0, i32 5, !dbg !150
  %31 = load i8*, i8** %30, !dbg !150
  %32 = bitcast i8* %31 to i1 (%Simatic.Ax.Json.Deserializer*, i8*, i8*)*, !dbg !150
  %33 = call i1 %32(%Simatic.Ax.Json.Deserializer* %deserializer10, i8* %25, i8* %26), !dbg !150
  %34 = bitcast %STRING.0* %stringValue to i8*, !dbg !150
  %35 = bitcast %STRING.0* %2 to i8*, !dbg !150
  call void @"$ax.AssignST_String"(i8* %34, i8* %35), !dbg !150
  %auto_deref_this.addr14 = load %UsingDeserializer*, %UsingDeserializer** %this.addr, !dbg !150
  %keyFound = getelementptr inbounds %UsingDeserializer, %UsingDeserializer* %auto_deref_this.addr14, i32 0, i32 6, !dbg !150
  store i1 %33, i1* %keyFound, !dbg !150
  %auto_deref_this.addr15 = load %UsingDeserializer*, %UsingDeserializer** %this.addr, !dbg !151
  %keyFound16 = getelementptr inbounds %UsingDeserializer, %UsingDeserializer* %auto_deref_this.addr15, i32 0, i32 6, !dbg !151
  %36 = load i1, i1* %keyFound16, !dbg !151
  %37 = icmp eq i1 %36, true, !dbg !151
  %38 = load i1, i1* @GlobalAssertValue, !dbg !151
  %39 = and i1 %37, %38, !dbg !151
  store i1 %39, i1* @GlobalAssertValue, !dbg !151
  %40 = load i1, i1* %keyFound16, !dbg !151
  %41 = call [1 x i8] @"AxUnit.ToByteArray$I@V@Int1@value"(i1 %40), !dbg !151
  store [1 x i8] %41, [1 x i8]* %5, !dbg !151
  %42 = load [1 x i8], [1 x i8]* %5, !dbg !151
  store [1 x i8] %42, [1 x i8]* %3, !dbg !151
  %43 = call [1 x i8] @"AxUnit.ToByteArray$I@V@Int1@value"(i1 true), !dbg !151
  store [1 x i8] %43, [1 x i8]* %6, !dbg !151
  %44 = load [1 x i8], [1 x i8]* %6, !dbg !151
  store [1 x i8] %44, [1 x i8]* %4, !dbg !151
  %45 = bitcast [1 x i8]* %3 to i8*, !dbg !151
  store %"$ax.ArrayWithBound" { i8* null, i32 1, %"$ax.ArrayBounds"* null }, %"$ax.ArrayWithBound"* %8, !dbg !151
  %"$array_ptr17" = getelementptr inbounds %"$ax.ArrayWithBound", %"$ax.ArrayWithBound"* %8, i32 0, i32 0, !dbg !151
  store i8* %45, i8** %"$array_ptr17", !dbg !151
  %"$bounds18" = getelementptr inbounds %"$ax.ArrayWithBound", %"$ax.ArrayWithBound"* %8, i32 0, i32 2, !dbg !151
  %46 = bitcast [1 x %"$ax.ArrayBounds"]* %7 to %"$ax.ArrayBounds"*, !dbg !151
  store %"$ax.ArrayBounds"* %46, %"$ax.ArrayBounds"** %"$bounds18", !dbg !151
  %47 = load %"$ax.ArrayWithBound", %"$ax.ArrayWithBound"* %8, !dbg !151
  %48 = bitcast [1 x i8]* %4 to i8*, !dbg !151
  store %"$ax.ArrayWithBound" { i8* null, i32 1, %"$ax.ArrayBounds"* null }, %"$ax.ArrayWithBound"* %10, !dbg !151
  %"$array_ptr19" = getelementptr inbounds %"$ax.ArrayWithBound", %"$ax.ArrayWithBound"* %10, i32 0, i32 0, !dbg !151
  store i8* %48, i8** %"$array_ptr19", !dbg !151
  %"$bounds20" = getelementptr inbounds %"$ax.ArrayWithBound", %"$ax.ArrayWithBound"* %10, i32 0, i32 2, !dbg !151
  %49 = bitcast [1 x %"$ax.ArrayBounds"]* %9 to %"$ax.ArrayBounds"*, !dbg !151
  store %"$ax.ArrayBounds"* %49, %"$ax.ArrayBounds"** %"$bounds20", !dbg !151
  %50 = load %"$ax.ArrayWithBound", %"$ax.ArrayWithBound"* %10, !dbg !151
  call void @"axunit_AssertLocationWriter$I@V@Int1@assertResult?I@V@UInt16@assertLocationId?I@V@Byte8@comparerTypeId?I@V@Byte8@assertDataType?I@V@axunit_assertData@assertDataLeft?I@V@axunit_assertData@assertDataRight?I@V@UInt16@lengthOfValueArray"(i1 %37, i16 14, i8 1, i8 1, %"$ax.ArrayWithBound" %47, %"$ax.ArrayWithBound" %50, i16 1), !dbg !151
  %51 = bitcast %STRING.0* %stringValue to i8*, !dbg !152
  %52 = call i32 @"$ax.CmpST_String"(i8* %51, i8* getelementptr inbounds (%"STRING[12]", %"STRING[12]"* @"$cStr.16", i32 0, i32 0)), !dbg !152
  %53 = icmp eq i32 %52, 0, !dbg !152
  %54 = load i1, i1* @GlobalAssertValue, !dbg !152
  %55 = and i1 %53, %54, !dbg !152
  store i1 %55, i1* @GlobalAssertValue, !dbg !152
  call void @"axunit_AssertLocationWriter$I@V@Int1@assertResult?I@V@UInt16@assertLocationId?I@V@Byte8@comparerTypeId?I@V@Byte8@assertDataType"(i1 %53, i16 15, i8 1, i8 0), !dbg !152
  ret void, !dbg !153
}

define void @"UsingDeserializer.GetValue_Nested$I@R@UsingDeserializer@this"(%UsingDeserializer* %this) !dbg !154 {
Entry:
  %this.addr = alloca %UsingDeserializer*
  %stringValue = alloca %STRING.0
  %keyArray = alloca [2 x %STRING.0]
  call void @llvm.dbg.declare(metadata %UsingDeserializer** %this.addr, metadata !155, metadata !DIExpression()), !dbg !156
  call void @llvm.dbg.declare(metadata %STRING.0* %stringValue, metadata !157, metadata !DIExpression()), !dbg !158
  call void @llvm.dbg.declare(metadata [2 x %STRING.0]* %keyArray, metadata !159, metadata !DIExpression()), !dbg !164
  %0 = alloca [1 x %"$ax.ArrayBounds"]
  store [1 x %"$ax.ArrayBounds"] [%"$ax.ArrayBounds" { i32 0, i32 999, i32 1 }], [1 x %"$ax.ArrayBounds"]* %0
  %1 = alloca %"$ax.ArrayWithBound"
  %2 = alloca %STRING.0
  store %STRING.0 { i8 -2, i8 0, [255 x i8] zeroinitializer }, %STRING.0* %2
  %3 = alloca [1 x i8]
  store [1 x i8] zeroinitializer, [1 x i8]* %3
  %4 = alloca [1 x i8]
  store [1 x i8] zeroinitializer, [1 x i8]* %4
  %5 = alloca [1 x i8]
  %6 = alloca [1 x i8]
  %7 = alloca [1 x %"$ax.ArrayBounds"]
  store [1 x %"$ax.ArrayBounds"] [%"$ax.ArrayBounds" { i32 0, i32 0, i32 1 }], [1 x %"$ax.ArrayBounds"]* %7
  %8 = alloca %"$ax.ArrayWithBound"
  %9 = alloca [1 x %"$ax.ArrayBounds"]
  store [1 x %"$ax.ArrayBounds"] [%"$ax.ArrayBounds" { i32 0, i32 0, i32 1 }], [1 x %"$ax.ArrayBounds"]* %9
  %10 = alloca %"$ax.ArrayWithBound"
  %11 = alloca %STRING.0
  store %STRING.0 { i8 -2, i8 0, [255 x i8] zeroinitializer }, %STRING.0* %11
  %12 = alloca [1 x %"$ax.ArrayBounds"]
  store [1 x %"$ax.ArrayBounds"] [%"$ax.ArrayBounds" { i32 0, i32 1, i32 1 }], [1 x %"$ax.ArrayBounds"]* %12
  %13 = alloca %"$ax.ArrayWithBound"
  %14 = alloca [1 x i8]
  store [1 x i8] zeroinitializer, [1 x i8]* %14
  %15 = alloca [1 x i8]
  store [1 x i8] zeroinitializer, [1 x i8]* %15
  %16 = alloca [1 x i8]
  %17 = alloca [1 x i8]
  %18 = alloca [1 x %"$ax.ArrayBounds"]
  store [1 x %"$ax.ArrayBounds"] [%"$ax.ArrayBounds" { i32 0, i32 0, i32 1 }], [1 x %"$ax.ArrayBounds"]* %18
  %19 = alloca %"$ax.ArrayWithBound"
  %20 = alloca [1 x %"$ax.ArrayBounds"]
  store [1 x %"$ax.ArrayBounds"] [%"$ax.ArrayBounds" { i32 0, i32 0, i32 1 }], [1 x %"$ax.ArrayBounds"]* %20
  %21 = alloca %"$ax.ArrayWithBound"
  store %UsingDeserializer* %this, %UsingDeserializer** %this.addr
  store %STRING.0 { i8 -2, i8 0, [255 x i8] zeroinitializer }, %STRING.0* %stringValue
  store [2 x %STRING.0] [%STRING.0 { i8 -2, i8 0, [255 x i8] zeroinitializer }, %STRING.0 { i8 -2, i8 0, [255 x i8] zeroinitializer }], [2 x %STRING.0]* %keyArray
  br label %bb1

bb1:                                              ; preds = %Entry
  %auto_deref_this.addr = load %UsingDeserializer*, %UsingDeserializer** %this.addr, !dbg !165
  %JSON_Entry = getelementptr inbounds %UsingDeserializer, %UsingDeserializer* %auto_deref_this.addr, i32 0, i32 3, !dbg !165
  %22 = bitcast %STRING.0* %JSON_Entry to i8*, !dbg !165
  call void @"$ax.AssignST_String"(i8* %22, i8* getelementptr inbounds (%"STRING[60]", %"STRING[60]"* @"$cStr.17", i32 0, i32 0)), !dbg !165
  %auto_deref_this.addr1 = load %UsingDeserializer*, %UsingDeserializer** %this.addr, !dbg !166
  %JSON_Entry2 = getelementptr inbounds %UsingDeserializer, %UsingDeserializer* %auto_deref_this.addr1, i32 0, i32 3, !dbg !166
  %auto_deref_this.addr3 = load %UsingDeserializer*, %UsingDeserializer** %this.addr, !dbg !166
  %buffer = getelementptr inbounds %UsingDeserializer, %UsingDeserializer* %auto_deref_this.addr3, i32 0, i32 2, !dbg !166
  %23 = bitcast %STRING.0* %JSON_Entry2 to i8*, !dbg !166
  %24 = bitcast [1000 x i8]* %buffer to i8*, !dbg !166
  store %"$ax.ArrayWithBound" { i8* null, i32 1, %"$ax.ArrayBounds"* null }, %"$ax.ArrayWithBound"* %1, !dbg !166
  %"$array_ptr" = getelementptr inbounds %"$ax.ArrayWithBound", %"$ax.ArrayWithBound"* %1, i32 0, i32 0, !dbg !166
  store i8* %24, i8** %"$array_ptr", !dbg !166
  %"$bounds" = getelementptr inbounds %"$ax.ArrayWithBound", %"$ax.ArrayWithBound"* %1, i32 0, i32 2, !dbg !166
  %25 = bitcast [1 x %"$ax.ArrayBounds"]* %0 to %"$ax.ArrayBounds"*, !dbg !166
  store %"$ax.ArrayBounds"* %25, %"$ax.ArrayBounds"** %"$bounds", !dbg !166
  %26 = call i32 @"Simatic.Ax.Conversion.Strings.ToArray$I@V@STRING@str?I@R@ARRAY [*] OF CHAR@arr"(i8* %23, %"$ax.ArrayWithBound"* %1), !dbg !166
  %auto_deref_this.addr4 = load %UsingDeserializer*, %UsingDeserializer** %this.addr, !dbg !166
  %len = getelementptr inbounds %UsingDeserializer, %UsingDeserializer* %auto_deref_this.addr4, i32 0, i32 5, !dbg !166
  store i32 %26, i32* %len, !dbg !166
  %auto_deref_this.addr5 = load %UsingDeserializer*, %UsingDeserializer** %this.addr, !dbg !167
  %deserializer = getelementptr inbounds %UsingDeserializer, %UsingDeserializer* %auto_deref_this.addr5, i32 0, i32 1, !dbg !167
  %auto_deref_this.addr6 = load %UsingDeserializer*, %UsingDeserializer** %this.addr, !dbg !167
  %buffer7 = getelementptr inbounds %UsingDeserializer, %UsingDeserializer* %auto_deref_this.addr6, i32 0, i32 2, !dbg !167
  %27 = getelementptr inbounds %Simatic.Ax.Json.Deserializer, %Simatic.Ax.Json.Deserializer* %deserializer, i32 0, i32 0, !dbg !167
  %28 = load i8*, i8** %27, !dbg !167
  %29 = bitcast i8* %28 to %"$CD_Simatic.Ax.Json.Deserializer"*, !dbg !167
  %"$vTable" = getelementptr inbounds %"$CD_Simatic.Ax.Json.Deserializer", %"$CD_Simatic.Ax.Json.Deserializer"* %29, i32 0, i32 4, !dbg !167
  %30 = getelementptr inbounds [19 x i8*], [19 x i8*]* %"$vTable", i32 0, i32 0, !dbg !167
  %31 = load i8*, i8** %30, !dbg !167
  %32 = bitcast i8* %31 to void (%Simatic.Ax.Json.Deserializer*, [1000 x i8]*)*, !dbg !167
  call void %32(%Simatic.Ax.Json.Deserializer* %deserializer, [1000 x i8]* %buffer7), !dbg !167
  %auto_deref_this.addr8 = load %UsingDeserializer*, %UsingDeserializer** %this.addr, !dbg !168
  %key = getelementptr inbounds %UsingDeserializer, %UsingDeserializer* %auto_deref_this.addr8, i32 0, i32 4, !dbg !168
  %33 = bitcast %STRING.0* %key to i8*, !dbg !168
  call void @"$ax.AssignST_String"(i8* %33, i8* getelementptr inbounds (%"STRING[4]", %"STRING[4]"* @"$cStr.18", i32 0, i32 0)), !dbg !168
  %auto_deref_this.addr9 = load %UsingDeserializer*, %UsingDeserializer** %this.addr, !dbg !169
  %deserializer10 = getelementptr inbounds %UsingDeserializer, %UsingDeserializer* %auto_deref_this.addr9, i32 0, i32 1, !dbg !169
  %auto_deref_this.addr11 = load %UsingDeserializer*, %UsingDeserializer** %this.addr, !dbg !169
  %key12 = getelementptr inbounds %UsingDeserializer, %UsingDeserializer* %auto_deref_this.addr11, i32 0, i32 4, !dbg !169
  %34 = bitcast %STRING.0* %2 to i8*, !dbg !169
  %35 = bitcast %STRING.0* %stringValue to i8*, !dbg !169
  call void @"$ax.AssignST_String"(i8* %34, i8* %35), !dbg !169
  %36 = bitcast %STRING.0* %key12 to i8*, !dbg !169
  %37 = bitcast %STRING.0* %2 to i8*, !dbg !169
  %38 = getelementptr inbounds %Simatic.Ax.Json.Deserializer, %Simatic.Ax.Json.Deserializer* %deserializer10, i32 0, i32 0, !dbg !169
  %39 = load i8*, i8** %38, !dbg !169
  %40 = bitcast i8* %39 to %"$CD_Simatic.Ax.Json.Deserializer"*, !dbg !169
  %"$vTable13" = getelementptr inbounds %"$CD_Simatic.Ax.Json.Deserializer", %"$CD_Simatic.Ax.Json.Deserializer"* %40, i32 0, i32 4, !dbg !169
  %41 = getelementptr inbounds [19 x i8*], [19 x i8*]* %"$vTable13", i32 0, i32 5, !dbg !169
  %42 = load i8*, i8** %41, !dbg !169
  %43 = bitcast i8* %42 to i1 (%Simatic.Ax.Json.Deserializer*, i8*, i8*)*, !dbg !169
  %44 = call i1 %43(%Simatic.Ax.Json.Deserializer* %deserializer10, i8* %36, i8* %37), !dbg !169
  %45 = bitcast %STRING.0* %stringValue to i8*, !dbg !169
  %46 = bitcast %STRING.0* %2 to i8*, !dbg !169
  call void @"$ax.AssignST_String"(i8* %45, i8* %46), !dbg !169
  %auto_deref_this.addr14 = load %UsingDeserializer*, %UsingDeserializer** %this.addr, !dbg !169
  %keyFound = getelementptr inbounds %UsingDeserializer, %UsingDeserializer* %auto_deref_this.addr14, i32 0, i32 6, !dbg !169
  store i1 %44, i1* %keyFound, !dbg !169
  %auto_deref_this.addr15 = load %UsingDeserializer*, %UsingDeserializer** %this.addr, !dbg !170
  %keyFound16 = getelementptr inbounds %UsingDeserializer, %UsingDeserializer* %auto_deref_this.addr15, i32 0, i32 6, !dbg !170
  %47 = load i1, i1* %keyFound16, !dbg !170
  %48 = icmp eq i1 %47, true, !dbg !170
  %49 = load i1, i1* @GlobalAssertValue, !dbg !170
  %50 = and i1 %48, %49, !dbg !170
  store i1 %50, i1* @GlobalAssertValue, !dbg !170
  %51 = load i1, i1* %keyFound16, !dbg !170
  %52 = call [1 x i8] @"AxUnit.ToByteArray$I@V@Int1@value"(i1 %51), !dbg !170
  store [1 x i8] %52, [1 x i8]* %5, !dbg !170
  %53 = load [1 x i8], [1 x i8]* %5, !dbg !170
  store [1 x i8] %53, [1 x i8]* %3, !dbg !170
  %54 = call [1 x i8] @"AxUnit.ToByteArray$I@V@Int1@value"(i1 true), !dbg !170
  store [1 x i8] %54, [1 x i8]* %6, !dbg !170
  %55 = load [1 x i8], [1 x i8]* %6, !dbg !170
  store [1 x i8] %55, [1 x i8]* %4, !dbg !170
  %56 = bitcast [1 x i8]* %3 to i8*, !dbg !170
  store %"$ax.ArrayWithBound" { i8* null, i32 1, %"$ax.ArrayBounds"* null }, %"$ax.ArrayWithBound"* %8, !dbg !170
  %"$array_ptr17" = getelementptr inbounds %"$ax.ArrayWithBound", %"$ax.ArrayWithBound"* %8, i32 0, i32 0, !dbg !170
  store i8* %56, i8** %"$array_ptr17", !dbg !170
  %"$bounds18" = getelementptr inbounds %"$ax.ArrayWithBound", %"$ax.ArrayWithBound"* %8, i32 0, i32 2, !dbg !170
  %57 = bitcast [1 x %"$ax.ArrayBounds"]* %7 to %"$ax.ArrayBounds"*, !dbg !170
  store %"$ax.ArrayBounds"* %57, %"$ax.ArrayBounds"** %"$bounds18", !dbg !170
  %58 = load %"$ax.ArrayWithBound", %"$ax.ArrayWithBound"* %8, !dbg !170
  %59 = bitcast [1 x i8]* %4 to i8*, !dbg !170
  store %"$ax.ArrayWithBound" { i8* null, i32 1, %"$ax.ArrayBounds"* null }, %"$ax.ArrayWithBound"* %10, !dbg !170
  %"$array_ptr19" = getelementptr inbounds %"$ax.ArrayWithBound", %"$ax.ArrayWithBound"* %10, i32 0, i32 0, !dbg !170
  store i8* %59, i8** %"$array_ptr19", !dbg !170
  %"$bounds20" = getelementptr inbounds %"$ax.ArrayWithBound", %"$ax.ArrayWithBound"* %10, i32 0, i32 2, !dbg !170
  %60 = bitcast [1 x %"$ax.ArrayBounds"]* %9 to %"$ax.ArrayBounds"*, !dbg !170
  store %"$ax.ArrayBounds"* %60, %"$ax.ArrayBounds"** %"$bounds20", !dbg !170
  %61 = load %"$ax.ArrayWithBound", %"$ax.ArrayWithBound"* %10, !dbg !170
  call void @"axunit_AssertLocationWriter$I@V@Int1@assertResult?I@V@UInt16@assertLocationId?I@V@Byte8@comparerTypeId?I@V@Byte8@assertDataType?I@V@axunit_assertData@assertDataLeft?I@V@axunit_assertData@assertDataRight?I@V@UInt16@lengthOfValueArray"(i1 %48, i16 16, i8 1, i8 1, %"$ax.ArrayWithBound" %58, %"$ax.ArrayWithBound" %61, i16 1), !dbg !170
  %62 = bitcast %STRING.0* %stringValue to i8*, !dbg !171
  %63 = call i32 @"$ax.CmpST_String"(i8* %62, i8* getelementptr inbounds (%"STRING[49]", %"STRING[49]"* @"$cStr.19", i32 0, i32 0)), !dbg !171
  %64 = icmp eq i32 %63, 0, !dbg !171
  %65 = load i1, i1* @GlobalAssertValue, !dbg !171
  %66 = and i1 %64, %65, !dbg !171
  store i1 %66, i1* @GlobalAssertValue, !dbg !171
  call void @"axunit_AssertLocationWriter$I@V@Int1@assertResult?I@V@UInt16@assertLocationId?I@V@Byte8@comparerTypeId?I@V@Byte8@assertDataType"(i1 %64, i16 17, i8 1, i8 0), !dbg !171
  %67 = getelementptr inbounds [2 x %STRING.0], [2 x %STRING.0]* %keyArray, i32 0, i32 0, !dbg !172
  %68 = bitcast %STRING.0* %67 to i8*, !dbg !172
  call void @"$ax.AssignST_String"(i8* %68, i8* getelementptr inbounds (%"STRING[4]", %"STRING[4]"* @"$cStr.20", i32 0, i32 0)), !dbg !172
  %69 = getelementptr inbounds [2 x %STRING.0], [2 x %STRING.0]* %keyArray, i32 0, i32 1, !dbg !173
  %70 = bitcast %STRING.0* %69 to i8*, !dbg !173
  call void @"$ax.AssignST_String"(i8* %70, i8* getelementptr inbounds (%"STRING[10]", %"STRING[10]"* @"$cStr.21", i32 0, i32 0)), !dbg !173
  %auto_deref_this.addr21 = load %UsingDeserializer*, %UsingDeserializer** %this.addr, !dbg !174
  %deserializer22 = getelementptr inbounds %UsingDeserializer, %UsingDeserializer* %auto_deref_this.addr21, i32 0, i32 1, !dbg !174
  %71 = bitcast %STRING.0* %11 to i8*, !dbg !174
  %72 = bitcast %STRING.0* %stringValue to i8*, !dbg !174
  call void @"$ax.AssignST_String"(i8* %71, i8* %72), !dbg !174
  %73 = bitcast [2 x %STRING.0]* %keyArray to i8*, !dbg !174
  store %"$ax.ArrayWithBound" { i8* null, i32 1, %"$ax.ArrayBounds"* null }, %"$ax.ArrayWithBound"* %13, !dbg !174
  %"$array_ptr23" = getelementptr inbounds %"$ax.ArrayWithBound", %"$ax.ArrayWithBound"* %13, i32 0, i32 0, !dbg !174
  store i8* %73, i8** %"$array_ptr23", !dbg !174
  %"$bounds24" = getelementptr inbounds %"$ax.ArrayWithBound", %"$ax.ArrayWithBound"* %13, i32 0, i32 2, !dbg !174
  %74 = bitcast [1 x %"$ax.ArrayBounds"]* %12 to %"$ax.ArrayBounds"*, !dbg !174
  store %"$ax.ArrayBounds"* %74, %"$ax.ArrayBounds"** %"$bounds24", !dbg !174
  %75 = load %"$ax.ArrayWithBound", %"$ax.ArrayWithBound"* %13, !dbg !174
  %76 = bitcast %STRING.0* %11 to i8*, !dbg !174
  %77 = getelementptr inbounds %Simatic.Ax.Json.Deserializer, %Simatic.Ax.Json.Deserializer* %deserializer22, i32 0, i32 0, !dbg !174
  %78 = load i8*, i8** %77, !dbg !174
  %79 = bitcast i8* %78 to %"$CD_Simatic.Ax.Json.Deserializer"*, !dbg !174
  %"$vTable25" = getelementptr inbounds %"$CD_Simatic.Ax.Json.Deserializer", %"$CD_Simatic.Ax.Json.Deserializer"* %79, i32 0, i32 4, !dbg !174
  %80 = getelementptr inbounds [19 x i8*], [19 x i8*]* %"$vTable25", i32 0, i32 14, !dbg !174
  %81 = load i8*, i8** %80, !dbg !174
  %82 = bitcast i8* %81 to i1 (%Simatic.Ax.Json.Deserializer*, %"$ax.ArrayWithBound", i8*)*, !dbg !174
  %83 = call i1 %82(%Simatic.Ax.Json.Deserializer* %deserializer22, %"$ax.ArrayWithBound" %75, i8* %76), !dbg !174
  %84 = bitcast %STRING.0* %stringValue to i8*, !dbg !174
  %85 = bitcast %STRING.0* %11 to i8*, !dbg !174
  call void @"$ax.AssignST_String"(i8* %84, i8* %85), !dbg !174
  %auto_deref_this.addr26 = load %UsingDeserializer*, %UsingDeserializer** %this.addr, !dbg !174
  %keyFound27 = getelementptr inbounds %UsingDeserializer, %UsingDeserializer* %auto_deref_this.addr26, i32 0, i32 6, !dbg !174
  store i1 %83, i1* %keyFound27, !dbg !174
  %auto_deref_this.addr28 = load %UsingDeserializer*, %UsingDeserializer** %this.addr, !dbg !175
  %keyFound29 = getelementptr inbounds %UsingDeserializer, %UsingDeserializer* %auto_deref_this.addr28, i32 0, i32 6, !dbg !175
  %86 = load i1, i1* %keyFound29, !dbg !175
  %87 = icmp eq i1 %86, true, !dbg !175
  %88 = load i1, i1* @GlobalAssertValue, !dbg !175
  %89 = and i1 %87, %88, !dbg !175
  store i1 %89, i1* @GlobalAssertValue, !dbg !175
  %90 = load i1, i1* %keyFound29, !dbg !175
  %91 = call [1 x i8] @"AxUnit.ToByteArray$I@V@Int1@value"(i1 %90), !dbg !175
  store [1 x i8] %91, [1 x i8]* %16, !dbg !175
  %92 = load [1 x i8], [1 x i8]* %16, !dbg !175
  store [1 x i8] %92, [1 x i8]* %14, !dbg !175
  %93 = call [1 x i8] @"AxUnit.ToByteArray$I@V@Int1@value"(i1 true), !dbg !175
  store [1 x i8] %93, [1 x i8]* %17, !dbg !175
  %94 = load [1 x i8], [1 x i8]* %17, !dbg !175
  store [1 x i8] %94, [1 x i8]* %15, !dbg !175
  %95 = bitcast [1 x i8]* %14 to i8*, !dbg !175
  store %"$ax.ArrayWithBound" { i8* null, i32 1, %"$ax.ArrayBounds"* null }, %"$ax.ArrayWithBound"* %19, !dbg !175
  %"$array_ptr30" = getelementptr inbounds %"$ax.ArrayWithBound", %"$ax.ArrayWithBound"* %19, i32 0, i32 0, !dbg !175
  store i8* %95, i8** %"$array_ptr30", !dbg !175
  %"$bounds31" = getelementptr inbounds %"$ax.ArrayWithBound", %"$ax.ArrayWithBound"* %19, i32 0, i32 2, !dbg !175
  %96 = bitcast [1 x %"$ax.ArrayBounds"]* %18 to %"$ax.ArrayBounds"*, !dbg !175
  store %"$ax.ArrayBounds"* %96, %"$ax.ArrayBounds"** %"$bounds31", !dbg !175
  %97 = load %"$ax.ArrayWithBound", %"$ax.ArrayWithBound"* %19, !dbg !175
  %98 = bitcast [1 x i8]* %15 to i8*, !dbg !175
  store %"$ax.ArrayWithBound" { i8* null, i32 1, %"$ax.ArrayBounds"* null }, %"$ax.ArrayWithBound"* %21, !dbg !175
  %"$array_ptr32" = getelementptr inbounds %"$ax.ArrayWithBound", %"$ax.ArrayWithBound"* %21, i32 0, i32 0, !dbg !175
  store i8* %98, i8** %"$array_ptr32", !dbg !175
  %"$bounds33" = getelementptr inbounds %"$ax.ArrayWithBound", %"$ax.ArrayWithBound"* %21, i32 0, i32 2, !dbg !175
  %99 = bitcast [1 x %"$ax.ArrayBounds"]* %20 to %"$ax.ArrayBounds"*, !dbg !175
  store %"$ax.ArrayBounds"* %99, %"$ax.ArrayBounds"** %"$bounds33", !dbg !175
  %100 = load %"$ax.ArrayWithBound", %"$ax.ArrayWithBound"* %21, !dbg !175
  call void @"axunit_AssertLocationWriter$I@V@Int1@assertResult?I@V@UInt16@assertLocationId?I@V@Byte8@comparerTypeId?I@V@Byte8@assertDataType?I@V@axunit_assertData@assertDataLeft?I@V@axunit_assertData@assertDataRight?I@V@UInt16@lengthOfValueArray"(i1 %87, i16 18, i8 1, i8 1, %"$ax.ArrayWithBound" %97, %"$ax.ArrayWithBound" %100, i16 1), !dbg !175
  %101 = bitcast %STRING.0* %stringValue to i8*, !dbg !176
  %102 = call i32 @"$ax.CmpST_String"(i8* %101, i8* getelementptr inbounds (%"STRING[12]", %"STRING[12]"* @"$cStr.22", i32 0, i32 0)), !dbg !176
  %103 = icmp eq i32 %102, 0, !dbg !176
  %104 = load i1, i1* @GlobalAssertValue, !dbg !176
  %105 = and i1 %103, %104, !dbg !176
  store i1 %105, i1* @GlobalAssertValue, !dbg !176
  call void @"axunit_AssertLocationWriter$I@V@Int1@assertResult?I@V@UInt16@assertLocationId?I@V@Byte8@comparerTypeId?I@V@Byte8@assertDataType"(i1 %103, i16 19, i8 1, i8 0), !dbg !176
  ret void, !dbg !177
}

define void @"UsingDeserializer.GetValue_Nested_in_Nested$I@R@UsingDeserializer@this"(%UsingDeserializer* %this) !dbg !178 {
Entry:
  %this.addr = alloca %UsingDeserializer*
  %stringValue = alloca %STRING.0
  %keyArray = alloca [3 x %STRING.0]
  %intValue = alloca i16
  call void @llvm.dbg.declare(metadata %UsingDeserializer** %this.addr, metadata !179, metadata !DIExpression()), !dbg !180
  call void @llvm.dbg.declare(metadata %STRING.0* %stringValue, metadata !181, metadata !DIExpression()), !dbg !182
  call void @llvm.dbg.declare(metadata [3 x %STRING.0]* %keyArray, metadata !183, metadata !DIExpression()), !dbg !188
  call void @llvm.dbg.declare(metadata i16* %intValue, metadata !189, metadata !DIExpression()), !dbg !190
  %0 = alloca [1 x %"$ax.ArrayBounds"]
  store [1 x %"$ax.ArrayBounds"] [%"$ax.ArrayBounds" { i32 0, i32 999, i32 1 }], [1 x %"$ax.ArrayBounds"]* %0
  %1 = alloca %"$ax.ArrayWithBound"
  %2 = alloca i16
  store i16 0, i16* %2
  %3 = alloca [1 x %"$ax.ArrayBounds"]
  store [1 x %"$ax.ArrayBounds"] [%"$ax.ArrayBounds" { i32 0, i32 2, i32 1 }], [1 x %"$ax.ArrayBounds"]* %3
  %4 = alloca %"$ax.ArrayWithBound"
  %5 = alloca [1 x i8]
  store [1 x i8] zeroinitializer, [1 x i8]* %5
  %6 = alloca [1 x i8]
  store [1 x i8] zeroinitializer, [1 x i8]* %6
  %7 = alloca [1 x i8]
  %8 = alloca [1 x i8]
  %9 = alloca [1 x %"$ax.ArrayBounds"]
  store [1 x %"$ax.ArrayBounds"] [%"$ax.ArrayBounds" { i32 0, i32 0, i32 1 }], [1 x %"$ax.ArrayBounds"]* %9
  %10 = alloca %"$ax.ArrayWithBound"
  %11 = alloca [1 x %"$ax.ArrayBounds"]
  store [1 x %"$ax.ArrayBounds"] [%"$ax.ArrayBounds" { i32 0, i32 0, i32 1 }], [1 x %"$ax.ArrayBounds"]* %11
  %12 = alloca %"$ax.ArrayWithBound"
  %13 = alloca [2 x i8]
  store [2 x i8] zeroinitializer, [2 x i8]* %13
  %14 = alloca [2 x i8]
  store [2 x i8] zeroinitializer, [2 x i8]* %14
  %15 = alloca [2 x i8]
  %16 = alloca [2 x i8]
  %17 = alloca [1 x %"$ax.ArrayBounds"]
  store [1 x %"$ax.ArrayBounds"] [%"$ax.ArrayBounds" { i32 0, i32 1, i32 1 }], [1 x %"$ax.ArrayBounds"]* %17
  %18 = alloca %"$ax.ArrayWithBound"
  %19 = alloca [1 x %"$ax.ArrayBounds"]
  store [1 x %"$ax.ArrayBounds"] [%"$ax.ArrayBounds" { i32 0, i32 1, i32 1 }], [1 x %"$ax.ArrayBounds"]* %19
  %20 = alloca %"$ax.ArrayWithBound"
  store %UsingDeserializer* %this, %UsingDeserializer** %this.addr
  store %STRING.0 { i8 -2, i8 0, [255 x i8] zeroinitializer }, %STRING.0* %stringValue
  store [3 x %STRING.0] [%STRING.0 { i8 -2, i8 0, [255 x i8] zeroinitializer }, %STRING.0 { i8 -2, i8 0, [255 x i8] zeroinitializer }, %STRING.0 { i8 -2, i8 0, [255 x i8] zeroinitializer }], [3 x %STRING.0]* %keyArray
  store i16 0, i16* %intValue
  br label %bb1

bb1:                                              ; preds = %Entry
  %auto_deref_this.addr = load %UsingDeserializer*, %UsingDeserializer** %this.addr, !dbg !191
  %JSON_Entry = getelementptr inbounds %UsingDeserializer, %UsingDeserializer* %auto_deref_this.addr, i32 0, i32 3, !dbg !191
  %21 = bitcast %STRING.0* %JSON_Entry to i8*, !dbg !191
  call void @"$ax.AssignST_String"(i8* %21, i8* getelementptr inbounds (%"STRING[85]", %"STRING[85]"* @"$cStr.23", i32 0, i32 0)), !dbg !191
  %auto_deref_this.addr1 = load %UsingDeserializer*, %UsingDeserializer** %this.addr, !dbg !192
  %JSON_Entry2 = getelementptr inbounds %UsingDeserializer, %UsingDeserializer* %auto_deref_this.addr1, i32 0, i32 3, !dbg !192
  %auto_deref_this.addr3 = load %UsingDeserializer*, %UsingDeserializer** %this.addr, !dbg !192
  %buffer = getelementptr inbounds %UsingDeserializer, %UsingDeserializer* %auto_deref_this.addr3, i32 0, i32 2, !dbg !192
  %22 = bitcast %STRING.0* %JSON_Entry2 to i8*, !dbg !192
  %23 = bitcast [1000 x i8]* %buffer to i8*, !dbg !192
  store %"$ax.ArrayWithBound" { i8* null, i32 1, %"$ax.ArrayBounds"* null }, %"$ax.ArrayWithBound"* %1, !dbg !192
  %"$array_ptr" = getelementptr inbounds %"$ax.ArrayWithBound", %"$ax.ArrayWithBound"* %1, i32 0, i32 0, !dbg !192
  store i8* %23, i8** %"$array_ptr", !dbg !192
  %"$bounds" = getelementptr inbounds %"$ax.ArrayWithBound", %"$ax.ArrayWithBound"* %1, i32 0, i32 2, !dbg !192
  %24 = bitcast [1 x %"$ax.ArrayBounds"]* %0 to %"$ax.ArrayBounds"*, !dbg !192
  store %"$ax.ArrayBounds"* %24, %"$ax.ArrayBounds"** %"$bounds", !dbg !192
  %25 = call i32 @"Simatic.Ax.Conversion.Strings.ToArray$I@V@STRING@str?I@R@ARRAY [*] OF CHAR@arr"(i8* %22, %"$ax.ArrayWithBound"* %1), !dbg !192
  %auto_deref_this.addr4 = load %UsingDeserializer*, %UsingDeserializer** %this.addr, !dbg !192
  %len = getelementptr inbounds %UsingDeserializer, %UsingDeserializer* %auto_deref_this.addr4, i32 0, i32 5, !dbg !192
  store i32 %25, i32* %len, !dbg !192
  %auto_deref_this.addr5 = load %UsingDeserializer*, %UsingDeserializer** %this.addr, !dbg !193
  %deserializer = getelementptr inbounds %UsingDeserializer, %UsingDeserializer* %auto_deref_this.addr5, i32 0, i32 1, !dbg !193
  %auto_deref_this.addr6 = load %UsingDeserializer*, %UsingDeserializer** %this.addr, !dbg !193
  %buffer7 = getelementptr inbounds %UsingDeserializer, %UsingDeserializer* %auto_deref_this.addr6, i32 0, i32 2, !dbg !193
  %26 = getelementptr inbounds %Simatic.Ax.Json.Deserializer, %Simatic.Ax.Json.Deserializer* %deserializer, i32 0, i32 0, !dbg !193
  %27 = load i8*, i8** %26, !dbg !193
  %28 = bitcast i8* %27 to %"$CD_Simatic.Ax.Json.Deserializer"*, !dbg !193
  %"$vTable" = getelementptr inbounds %"$CD_Simatic.Ax.Json.Deserializer", %"$CD_Simatic.Ax.Json.Deserializer"* %28, i32 0, i32 4, !dbg !193
  %29 = getelementptr inbounds [19 x i8*], [19 x i8*]* %"$vTable", i32 0, i32 0, !dbg !193
  %30 = load i8*, i8** %29, !dbg !193
  %31 = bitcast i8* %30 to void (%Simatic.Ax.Json.Deserializer*, [1000 x i8]*)*, !dbg !193
  call void %31(%Simatic.Ax.Json.Deserializer* %deserializer, [1000 x i8]* %buffer7), !dbg !193
  %32 = getelementptr inbounds [3 x %STRING.0], [3 x %STRING.0]* %keyArray, i32 0, i32 0, !dbg !194
  %33 = bitcast %STRING.0* %32 to i8*, !dbg !194
  call void @"$ax.AssignST_String"(i8* %33, i8* getelementptr inbounds (%"STRING[4]", %"STRING[4]"* @"$cStr.24", i32 0, i32 0)), !dbg !194
  %34 = getelementptr inbounds [3 x %STRING.0], [3 x %STRING.0]* %keyArray, i32 0, i32 1, !dbg !195
  %35 = bitcast %STRING.0* %34 to i8*, !dbg !195
  call void @"$ax.AssignST_String"(i8* %35, i8* getelementptr inbounds (%"STRING[10]", %"STRING[10]"* @"$cStr.25", i32 0, i32 0)), !dbg !195
  %36 = getelementptr inbounds [3 x %STRING.0], [3 x %STRING.0]* %keyArray, i32 0, i32 2, !dbg !196
  %37 = bitcast %STRING.0* %36 to i8*, !dbg !196
  call void @"$ax.AssignST_String"(i8* %37, i8* getelementptr inbounds (%"STRING[17]", %"STRING[17]"* @"$cStr.26", i32 0, i32 0)), !dbg !196
  %auto_deref_this.addr8 = load %UsingDeserializer*, %UsingDeserializer** %this.addr, !dbg !197
  %deserializer9 = getelementptr inbounds %UsingDeserializer, %UsingDeserializer* %auto_deref_this.addr8, i32 0, i32 1, !dbg !197
  %38 = load i16, i16* %intValue, !dbg !197
  store i16 %38, i16* %2, !dbg !197
  %39 = bitcast [3 x %STRING.0]* %keyArray to i8*, !dbg !197
  store %"$ax.ArrayWithBound" { i8* null, i32 1, %"$ax.ArrayBounds"* null }, %"$ax.ArrayWithBound"* %4, !dbg !197
  %"$array_ptr10" = getelementptr inbounds %"$ax.ArrayWithBound", %"$ax.ArrayWithBound"* %4, i32 0, i32 0, !dbg !197
  store i8* %39, i8** %"$array_ptr10", !dbg !197
  %"$bounds11" = getelementptr inbounds %"$ax.ArrayWithBound", %"$ax.ArrayWithBound"* %4, i32 0, i32 2, !dbg !197
  %40 = bitcast [1 x %"$ax.ArrayBounds"]* %3 to %"$ax.ArrayBounds"*, !dbg !197
  store %"$ax.ArrayBounds"* %40, %"$ax.ArrayBounds"** %"$bounds11", !dbg !197
  %41 = load %"$ax.ArrayWithBound", %"$ax.ArrayWithBound"* %4, !dbg !197
  %42 = getelementptr inbounds %Simatic.Ax.Json.Deserializer, %Simatic.Ax.Json.Deserializer* %deserializer9, i32 0, i32 0, !dbg !197
  %43 = load i8*, i8** %42, !dbg !197
  %44 = bitcast i8* %43 to %"$CD_Simatic.Ax.Json.Deserializer"*, !dbg !197
  %"$vTable12" = getelementptr inbounds %"$CD_Simatic.Ax.Json.Deserializer", %"$CD_Simatic.Ax.Json.Deserializer"* %44, i32 0, i32 4, !dbg !197
  %45 = getelementptr inbounds [19 x i8*], [19 x i8*]* %"$vTable12", i32 0, i32 11, !dbg !197
  %46 = load i8*, i8** %45, !dbg !197
  %47 = bitcast i8* %46 to i1 (%Simatic.Ax.Json.Deserializer*, %"$ax.ArrayWithBound", i16*)*, !dbg !197
  %48 = call i1 %47(%Simatic.Ax.Json.Deserializer* %deserializer9, %"$ax.ArrayWithBound" %41, i16* %2), !dbg !197
  %49 = load i16, i16* %2, !dbg !197
  store i16 %49, i16* %intValue, !dbg !197
  %auto_deref_this.addr13 = load %UsingDeserializer*, %UsingDeserializer** %this.addr, !dbg !197
  %keyFound = getelementptr inbounds %UsingDeserializer, %UsingDeserializer* %auto_deref_this.addr13, i32 0, i32 6, !dbg !197
  store i1 %48, i1* %keyFound, !dbg !197
  %auto_deref_this.addr14 = load %UsingDeserializer*, %UsingDeserializer** %this.addr, !dbg !198
  %keyFound15 = getelementptr inbounds %UsingDeserializer, %UsingDeserializer* %auto_deref_this.addr14, i32 0, i32 6, !dbg !198
  %50 = load i1, i1* %keyFound15, !dbg !198
  %51 = icmp eq i1 %50, true, !dbg !198
  %52 = load i1, i1* @GlobalAssertValue, !dbg !198
  %53 = and i1 %51, %52, !dbg !198
  store i1 %53, i1* @GlobalAssertValue, !dbg !198
  %54 = load i1, i1* %keyFound15, !dbg !198
  %55 = call [1 x i8] @"AxUnit.ToByteArray$I@V@Int1@value"(i1 %54), !dbg !198
  store [1 x i8] %55, [1 x i8]* %7, !dbg !198
  %56 = load [1 x i8], [1 x i8]* %7, !dbg !198
  store [1 x i8] %56, [1 x i8]* %5, !dbg !198
  %57 = call [1 x i8] @"AxUnit.ToByteArray$I@V@Int1@value"(i1 true), !dbg !198
  store [1 x i8] %57, [1 x i8]* %8, !dbg !198
  %58 = load [1 x i8], [1 x i8]* %8, !dbg !198
  store [1 x i8] %58, [1 x i8]* %6, !dbg !198
  %59 = bitcast [1 x i8]* %5 to i8*, !dbg !198
  store %"$ax.ArrayWithBound" { i8* null, i32 1, %"$ax.ArrayBounds"* null }, %"$ax.ArrayWithBound"* %10, !dbg !198
  %"$array_ptr16" = getelementptr inbounds %"$ax.ArrayWithBound", %"$ax.ArrayWithBound"* %10, i32 0, i32 0, !dbg !198
  store i8* %59, i8** %"$array_ptr16", !dbg !198
  %"$bounds17" = getelementptr inbounds %"$ax.ArrayWithBound", %"$ax.ArrayWithBound"* %10, i32 0, i32 2, !dbg !198
  %60 = bitcast [1 x %"$ax.ArrayBounds"]* %9 to %"$ax.ArrayBounds"*, !dbg !198
  store %"$ax.ArrayBounds"* %60, %"$ax.ArrayBounds"** %"$bounds17", !dbg !198
  %61 = load %"$ax.ArrayWithBound", %"$ax.ArrayWithBound"* %10, !dbg !198
  %62 = bitcast [1 x i8]* %6 to i8*, !dbg !198
  store %"$ax.ArrayWithBound" { i8* null, i32 1, %"$ax.ArrayBounds"* null }, %"$ax.ArrayWithBound"* %12, !dbg !198
  %"$array_ptr18" = getelementptr inbounds %"$ax.ArrayWithBound", %"$ax.ArrayWithBound"* %12, i32 0, i32 0, !dbg !198
  store i8* %62, i8** %"$array_ptr18", !dbg !198
  %"$bounds19" = getelementptr inbounds %"$ax.ArrayWithBound", %"$ax.ArrayWithBound"* %12, i32 0, i32 2, !dbg !198
  %63 = bitcast [1 x %"$ax.ArrayBounds"]* %11 to %"$ax.ArrayBounds"*, !dbg !198
  store %"$ax.ArrayBounds"* %63, %"$ax.ArrayBounds"** %"$bounds19", !dbg !198
  %64 = load %"$ax.ArrayWithBound", %"$ax.ArrayWithBound"* %12, !dbg !198
  call void @"axunit_AssertLocationWriter$I@V@Int1@assertResult?I@V@UInt16@assertLocationId?I@V@Byte8@comparerTypeId?I@V@Byte8@assertDataType?I@V@axunit_assertData@assertDataLeft?I@V@axunit_assertData@assertDataRight?I@V@UInt16@lengthOfValueArray"(i1 %51, i16 20, i8 1, i8 1, %"$ax.ArrayWithBound" %61, %"$ax.ArrayWithBound" %64, i16 1), !dbg !198
  %65 = load i16, i16* %intValue, !dbg !199
  %66 = icmp eq i16 %65, 1234, !dbg !199
  %67 = load i1, i1* @GlobalAssertValue, !dbg !199
  %68 = and i1 %66, %67, !dbg !199
  store i1 %68, i1* @GlobalAssertValue, !dbg !199
  %69 = load i16, i16* %intValue, !dbg !199
  %70 = call [2 x i8] @"AxUnit.ToByteArray$I@V@Int16@value"(i16 %69), !dbg !199
  store [2 x i8] %70, [2 x i8]* %15, !dbg !199
  %71 = load [2 x i8], [2 x i8]* %15, !dbg !199
  store [2 x i8] %71, [2 x i8]* %13, !dbg !199
  %72 = call [2 x i8] @"AxUnit.ToByteArray$I@V@Int16@value"(i16 1234), !dbg !199
  store [2 x i8] %72, [2 x i8]* %16, !dbg !199
  %73 = load [2 x i8], [2 x i8]* %16, !dbg !199
  store [2 x i8] %73, [2 x i8]* %14, !dbg !199
  %74 = bitcast [2 x i8]* %13 to i8*, !dbg !199
  store %"$ax.ArrayWithBound" { i8* null, i32 1, %"$ax.ArrayBounds"* null }, %"$ax.ArrayWithBound"* %18, !dbg !199
  %"$array_ptr20" = getelementptr inbounds %"$ax.ArrayWithBound", %"$ax.ArrayWithBound"* %18, i32 0, i32 0, !dbg !199
  store i8* %74, i8** %"$array_ptr20", !dbg !199
  %"$bounds21" = getelementptr inbounds %"$ax.ArrayWithBound", %"$ax.ArrayWithBound"* %18, i32 0, i32 2, !dbg !199
  %75 = bitcast [1 x %"$ax.ArrayBounds"]* %17 to %"$ax.ArrayBounds"*, !dbg !199
  store %"$ax.ArrayBounds"* %75, %"$ax.ArrayBounds"** %"$bounds21", !dbg !199
  %76 = load %"$ax.ArrayWithBound", %"$ax.ArrayWithBound"* %18, !dbg !199
  %77 = bitcast [2 x i8]* %14 to i8*, !dbg !199
  store %"$ax.ArrayWithBound" { i8* null, i32 1, %"$ax.ArrayBounds"* null }, %"$ax.ArrayWithBound"* %20, !dbg !199
  %"$array_ptr22" = getelementptr inbounds %"$ax.ArrayWithBound", %"$ax.ArrayWithBound"* %20, i32 0, i32 0, !dbg !199
  store i8* %77, i8** %"$array_ptr22", !dbg !199
  %"$bounds23" = getelementptr inbounds %"$ax.ArrayWithBound", %"$ax.ArrayWithBound"* %20, i32 0, i32 2, !dbg !199
  %78 = bitcast [1 x %"$ax.ArrayBounds"]* %19 to %"$ax.ArrayBounds"*, !dbg !199
  store %"$ax.ArrayBounds"* %78, %"$ax.ArrayBounds"** %"$bounds23", !dbg !199
  %79 = load %"$ax.ArrayWithBound", %"$ax.ArrayWithBound"* %20, !dbg !199
  call void @"axunit_AssertLocationWriter$I@V@Int1@assertResult?I@V@UInt16@assertLocationId?I@V@Byte8@comparerTypeId?I@V@Byte8@assertDataType?I@V@axunit_assertData@assertDataLeft?I@V@axunit_assertData@assertDataRight?I@V@UInt16@lengthOfValueArray"(i1 %66, i16 21, i8 1, i8 3, %"$ax.ArrayWithBound" %76, %"$ax.ArrayWithBound" %79, i16 2), !dbg !199
  ret void, !dbg !200
}

define void @"Simatic.Ax.Json.Deserializer.SetBuffer$I@R@Simatic.Ax.Json.Deserializer@this?I@V@REF_TO ARRAY [0..999] OF CHAR@_buffer"(%Simatic.Ax.Json.Deserializer* %this, [1000 x i8]* %_buffer) !dbg !201 {
Entry:
  %this.addr = alloca %Simatic.Ax.Json.Deserializer*
  %_buffer.addr = alloca [1000 x i8]*
  call void @llvm.dbg.declare(metadata [1000 x i8]** %_buffer.addr, metadata !205, metadata !DIExpression()), !dbg !206
  call void @llvm.dbg.declare(metadata %Simatic.Ax.Json.Deserializer** %this.addr, metadata !207, metadata !DIExpression()), !dbg !208
  store %Simatic.Ax.Json.Deserializer* %this, %Simatic.Ax.Json.Deserializer** %this.addr
  store [1000 x i8]* %_buffer, [1000 x i8]** %_buffer.addr
  br label %bb1

bb1:                                              ; preds = %Entry
  %auto_deref_this.addr = load %Simatic.Ax.Json.Deserializer*, %Simatic.Ax.Json.Deserializer** %this.addr, !dbg !209
  %buffer = getelementptr inbounds %Simatic.Ax.Json.Deserializer, %Simatic.Ax.Json.Deserializer* %auto_deref_this.addr, i32 0, i32 1, !dbg !209
  %0 = load [1000 x i8]*, [1000 x i8]** %_buffer.addr, !dbg !209
  store [1000 x i8]* %0, [1000 x i8]** %buffer, !dbg !209
  ret void, !dbg !210
}

define i1 @"Simatic.Ax.Json.Deserializer.KeyIsInIndexSpan$I@R@Simatic.Ax.Json.Deserializer@this?I@V@STRING@key?I@V@Int16@startIndex?I@V@Int16@endIndex"(%Simatic.Ax.Json.Deserializer* %this, i8* %key, i16 %startIndex, i16 %endIndex) !dbg !211 {
Entry:
  %KeyIsInIndexSpan.ret = alloca i1
  %this.addr = alloca %Simatic.Ax.Json.Deserializer*
  %key.addr = alloca %STRING.0
  %startIndex.addr = alloca i16
  %endIndex.addr = alloca i16
  %keyIndex = alloca i16
  %loopIndex = alloca i16
  call void @llvm.dbg.declare(metadata %STRING.0* %key.addr, metadata !215, metadata !DIExpression()), !dbg !216
  call void @llvm.dbg.declare(metadata i16* %startIndex.addr, metadata !217, metadata !DIExpression()), !dbg !218
  call void @llvm.dbg.declare(metadata i16* %endIndex.addr, metadata !219, metadata !DIExpression()), !dbg !220
  call void @llvm.dbg.declare(metadata %Simatic.Ax.Json.Deserializer** %this.addr, metadata !221, metadata !DIExpression()), !dbg !222
  call void @llvm.dbg.declare(metadata i16* %keyIndex, metadata !223, metadata !DIExpression()), !dbg !224
  call void @llvm.dbg.declare(metadata i16* %loopIndex, metadata !225, metadata !DIExpression()), !dbg !226
  call void @llvm.dbg.declare(metadata i1* %KeyIsInIndexSpan.ret, metadata !227, metadata !DIExpression()), !dbg !222
  %0 = alloca i16
  store i16 0, i16* %0
  store i1 false, i1* %KeyIsInIndexSpan.ret
  store %Simatic.Ax.Json.Deserializer* %this, %Simatic.Ax.Json.Deserializer** %this.addr
  store %STRING.0 { i8 -2, i8 0, [255 x i8] zeroinitializer }, %STRING.0* %key.addr
  %1 = bitcast %STRING.0* %key.addr to i8*, !dbg !222
  call void @"$ax.AssignST_String"(i8* %1, i8* %key), !dbg !222
  store i16 %startIndex, i16* %startIndex.addr
  store i16 %endIndex, i16* %endIndex.addr
  store i16 1, i16* %keyIndex
  store i16 0, i16* %loopIndex
  br label %bb1

bb1:                                              ; preds = %Entry
  %2 = load i16, i16* %endIndex.addr, !dbg !228
  store i16 %2, i16* %0, !dbg !228
  %3 = load i16, i16* %startIndex.addr, !dbg !229
  store i16 %3, i16* %loopIndex, !dbg !229
  br label %bb4, !dbg !230

bb2:                                              ; preds = %bb4
  br label %bb3, !dbg !231

bb3:                                              ; preds = %bb2
  store i1 true, i1* %KeyIsInIndexSpan.ret, !dbg !232
  %4 = load i1, i1* %KeyIsInIndexSpan.ret, !dbg !233
  ret i1 %4, !dbg !233

bb4:                                              ; preds = %bb5, %bb1
  %5 = load i16, i16* %loopIndex, !dbg !230
  %6 = load i16, i16* %0, !dbg !230
  %7 = icmp sgt i16 %5, %6, !dbg !230
  br i1 %7, label %bb2, label %bb6, !dbg !230

bb5:                                              ; preds = %bb8
  %8 = load i16, i16* %loopIndex, !dbg !230
  %9 = add i16 %8, 1, !dbg !230
  store i16 %9, i16* %loopIndex, !dbg !230
  br label %bb4, !dbg !230

bb6:                                              ; preds = %bb4
  %auto_deref_this.addr = load %Simatic.Ax.Json.Deserializer*, %Simatic.Ax.Json.Deserializer** %this.addr, !dbg !234
  %buffer = getelementptr inbounds %Simatic.Ax.Json.Deserializer, %Simatic.Ax.Json.Deserializer* %auto_deref_this.addr, i32 0, i32 1, !dbg !234
  %10 = load [1000 x i8]*, [1000 x i8]** %buffer, !dbg !234
  %11 = load i16, i16* %loopIndex, !dbg !234
  %12 = sext i16 %11 to i32, !dbg !234
  %13 = sub i32 %12, 0, !dbg !234
  %14 = getelementptr inbounds [1000 x i8], [1000 x i8]* %10, i32 0, i32 %13, !dbg !234
  %15 = load i16, i16* %keyIndex, !dbg !234
  %16 = trunc i16 %15 to i8, !dbg !234
  %17 = bitcast %STRING.0* %key.addr to i8*, !dbg !234
  %18 = call i8 @"$ax.GetAtST_String"(i8* %17, i8 %16), !dbg !234
  %19 = load i8, i8* %14, !dbg !234
  %20 = icmp eq i8 %19, %18, !dbg !234
  %21 = xor i1 %20, true, !dbg !234
  br i1 %21, label %bb9, label %bb7, !dbg !234

bb7:                                              ; preds = %bb10, %bb6
  br label %bb8, !dbg !235

bb8:                                              ; preds = %bb7
  %22 = load i16, i16* %keyIndex, !dbg !236
  %23 = add i16 %22, 1, !dbg !236
  store i16 %23, i16* %keyIndex, !dbg !236
  br label %bb5, !dbg !230

bb9:                                              ; preds = %bb6
  store i1 false, i1* %KeyIsInIndexSpan.ret, !dbg !237
  %24 = load i1, i1* %KeyIsInIndexSpan.ret, !dbg !238
  ret i1 %24, !dbg !238

bb10:                                             ; No predecessors!
  br label %bb7, !dbg !238
}

define %STRING.0 @"Simatic.Ax.Json.Deserializer.GetValueFromIndex$I@R@Simatic.Ax.Json.Deserializer@this?I@V@Int16@startIndex?I@V@Int16@endIndex"(%Simatic.Ax.Json.Deserializer* %this, i16 %startIndex, i16 %endIndex) !dbg !239 {
Entry:
  %GetValueFromIndex.ret = alloca %STRING.0
  %this.addr = alloca %Simatic.Ax.Json.Deserializer*
  %startIndex.addr = alloca i16
  %endIndex.addr = alloca i16
  %index = alloca i16
  %realStartIndex = alloca i16
  %realEndIndex = alloca i16
  %incrementBackwards = alloca i16
  call void @llvm.dbg.declare(metadata i16* %startIndex.addr, metadata !242, metadata !DIExpression()), !dbg !243
  call void @llvm.dbg.declare(metadata i16* %endIndex.addr, metadata !244, metadata !DIExpression()), !dbg !245
  call void @llvm.dbg.declare(metadata %Simatic.Ax.Json.Deserializer** %this.addr, metadata !246, metadata !DIExpression()), !dbg !247
  call void @llvm.dbg.declare(metadata i16* %index, metadata !248, metadata !DIExpression()), !dbg !249
  call void @llvm.dbg.declare(metadata i16* %realStartIndex, metadata !250, metadata !DIExpression()), !dbg !251
  call void @llvm.dbg.declare(metadata i16* %realEndIndex, metadata !252, metadata !DIExpression()), !dbg !253
  call void @llvm.dbg.declare(metadata i16* %incrementBackwards, metadata !254, metadata !DIExpression()), !dbg !255
  call void @llvm.dbg.declare(metadata %STRING.0* %GetValueFromIndex.ret, metadata !256, metadata !DIExpression()), !dbg !247
  %0 = alloca i16
  store i16 0, i16* %0
  %1 = alloca i16
  store i16 0, i16* %1
  %2 = alloca i16
  store i16 0, i16* %2
  %3 = alloca [1 x %"$ax.ArrayBounds"]
  store [1 x %"$ax.ArrayBounds"] [%"$ax.ArrayBounds" { i32 0, i32 999, i32 1 }], [1 x %"$ax.ArrayBounds"]* %3
  %4 = alloca %"$ax.ArrayWithBound"
  %5 = alloca %STRING.0
  store %STRING.0 { i8 -2, i8 0, [255 x i8] zeroinitializer }, %STRING.0* %GetValueFromIndex.ret
  store %Simatic.Ax.Json.Deserializer* %this, %Simatic.Ax.Json.Deserializer** %this.addr
  store i16 %startIndex, i16* %startIndex.addr
  store i16 %endIndex, i16* %endIndex.addr
  store i16 0, i16* %index
  store i16 0, i16* %realStartIndex
  store i16 0, i16* %realEndIndex
  store i16 -1, i16* %incrementBackwards
  br label %bb1

bb1:                                              ; preds = %Entry
  %6 = load i16, i16* %endIndex.addr, !dbg !257
  store i16 %6, i16* %0, !dbg !257
  %7 = load i16, i16* %startIndex.addr, !dbg !258
  store i16 %7, i16* %index, !dbg !258
  br label %bb4, !dbg !259

bb2:                                              ; preds = %bb9, %bb4
  br label %bb3, !dbg !260

bb3:                                              ; preds = %bb2
  %8 = load i16, i16* %incrementBackwards, !dbg !261
  store i16 %8, i16* %1, !dbg !261
  %9 = load i16, i16* %realStartIndex, !dbg !262
  store i16 %9, i16* %2, !dbg !262
  %10 = load i16, i16* %endIndex.addr, !dbg !263
  store i16 %10, i16* %index, !dbg !263
  %11 = load i16, i16* %1, !dbg !263
  %12 = icmp slt i16 %11, 0, !dbg !263
  br i1 %12, label %bb14, label %bb13, !dbg !263

bb4:                                              ; preds = %bb5, %bb1
  %13 = load i16, i16* %index, !dbg !259
  %14 = load i16, i16* %0, !dbg !259
  %15 = icmp sgt i16 %13, %14, !dbg !259
  br i1 %15, label %bb2, label %bb6, !dbg !259

bb5:                                              ; preds = %bb8
  %16 = load i16, i16* %index, !dbg !259
  %17 = add i16 %16, 1, !dbg !259
  store i16 %17, i16* %index, !dbg !259
  br label %bb4, !dbg !259

bb6:                                              ; preds = %bb4
  %auto_deref_this.addr = load %Simatic.Ax.Json.Deserializer*, %Simatic.Ax.Json.Deserializer** %this.addr, !dbg !264
  %buffer = getelementptr inbounds %Simatic.Ax.Json.Deserializer, %Simatic.Ax.Json.Deserializer* %auto_deref_this.addr, i32 0, i32 1, !dbg !264
  %18 = load [1000 x i8]*, [1000 x i8]** %buffer, !dbg !264
  %19 = load i16, i16* %index, !dbg !264
  %20 = sext i16 %19 to i32, !dbg !264
  %21 = sub i32 %20, 0, !dbg !264
  %22 = getelementptr inbounds [1000 x i8], [1000 x i8]* %18, i32 0, i32 %21, !dbg !264
  %23 = load i8, i8* %22, !dbg !264
  %24 = icmp eq i8 %23, 32, !dbg !264
  %auto_deref_this.addr1 = load %Simatic.Ax.Json.Deserializer*, %Simatic.Ax.Json.Deserializer** %this.addr, !dbg !264
  %buffer2 = getelementptr inbounds %Simatic.Ax.Json.Deserializer, %Simatic.Ax.Json.Deserializer* %auto_deref_this.addr1, i32 0, i32 1, !dbg !264
  %25 = load [1000 x i8]*, [1000 x i8]** %buffer2, !dbg !264
  %26 = load i16, i16* %index, !dbg !264
  %27 = sext i16 %26 to i32, !dbg !264
  %28 = sub i32 %27, 0, !dbg !264
  %29 = getelementptr inbounds [1000 x i8], [1000 x i8]* %25, i32 0, i32 %28, !dbg !264
  %30 = load i8, i8* %29, !dbg !264
  %31 = icmp eq i8 %30, 34, !dbg !264
  %32 = or i1 %24, %31, !dbg !264
  %33 = xor i1 %32, true, !dbg !264
  br i1 %33, label %bb9, label %bb7, !dbg !264

bb7:                                              ; preds = %bb10, %bb6
  br label %bb8, !dbg !265

bb8:                                              ; preds = %bb7
  br label %bb5, !dbg !259

bb9:                                              ; preds = %bb6
  %34 = load i16, i16* %index, !dbg !266
  store i16 %34, i16* %realStartIndex, !dbg !266
  br label %bb2, !dbg !267

bb10:                                             ; No predecessors!
  br label %bb7, !dbg !267

bb11:                                             ; preds = %bb25, %bb14, %bb19, %bb13
  br label %bb12, !dbg !268

bb12:                                             ; preds = %bb11
  %auto_deref_this.addr11 = load %Simatic.Ax.Json.Deserializer*, %Simatic.Ax.Json.Deserializer** %this.addr, !dbg !269
  %buffer12 = getelementptr inbounds %Simatic.Ax.Json.Deserializer, %Simatic.Ax.Json.Deserializer* %auto_deref_this.addr11, i32 0, i32 1, !dbg !269
  %35 = load [1000 x i8]*, [1000 x i8]** %buffer12, !dbg !269
  %36 = bitcast [1000 x i8]* %35 to i8*, !dbg !269
  store %"$ax.ArrayWithBound" { i8* null, i32 1, %"$ax.ArrayBounds"* null }, %"$ax.ArrayWithBound"* %4, !dbg !269
  %"$array_ptr" = getelementptr inbounds %"$ax.ArrayWithBound", %"$ax.ArrayWithBound"* %4, i32 0, i32 0, !dbg !269
  store i8* %36, i8** %"$array_ptr", !dbg !269
  %"$bounds" = getelementptr inbounds %"$ax.ArrayWithBound", %"$ax.ArrayWithBound"* %4, i32 0, i32 2, !dbg !269
  %37 = bitcast [1 x %"$ax.ArrayBounds"]* %3 to %"$ax.ArrayBounds"*, !dbg !269
  store %"$ax.ArrayBounds"* %37, %"$ax.ArrayBounds"** %"$bounds", !dbg !269
  %38 = load %"$ax.ArrayWithBound", %"$ax.ArrayWithBound"* %4, !dbg !269
  %39 = load i16, i16* %realStartIndex, !dbg !269
  %40 = load i16, i16* %realEndIndex, !dbg !269
  %41 = call %STRING.0 @"Simatic.Ax.Conversion.Arrays.ToString$I@V@ARRAY [*] OF CHAR@arr?I@V@Int16@startIdx?I@V@Int16@endIdx"(%"$ax.ArrayWithBound" %38, i16 %39, i16 %40), !dbg !269
  store %STRING.0 %41, %STRING.0* %5, !dbg !269
  %42 = bitcast %STRING.0* %GetValueFromIndex.ret to i8*, !dbg !269
  %43 = bitcast %STRING.0* %5 to i8*, !dbg !269
  call void @"$ax.AssignST_String"(i8* %42, i8* %43), !dbg !269
  %44 = load %STRING.0, %STRING.0* %GetValueFromIndex.ret, !dbg !270
  ret %STRING.0 %44, !dbg !270

bb13:                                             ; preds = %bb15, %bb3
  %45 = load i16, i16* %index, !dbg !271
  %46 = load i16, i16* %2, !dbg !271
  %47 = icmp sgt i16 %45, %46, !dbg !271
  br i1 %47, label %bb11, label %bb16, !dbg !271

bb14:                                             ; preds = %bb21, %bb3
  %48 = load i16, i16* %index, !dbg !271
  %49 = load i16, i16* %2, !dbg !271
  %50 = icmp slt i16 %48, %49, !dbg !271
  br i1 %50, label %bb11, label %bb22, !dbg !271

bb15:                                             ; preds = %bb18
  %51 = load i16, i16* %index, !dbg !271
  %52 = load i16, i16* %1, !dbg !271
  %53 = add i16 %51, %52, !dbg !271
  store i16 %53, i16* %index, !dbg !271
  br label %bb13, !dbg !271

bb16:                                             ; preds = %bb13
  %auto_deref_this.addr3 = load %Simatic.Ax.Json.Deserializer*, %Simatic.Ax.Json.Deserializer** %this.addr, !dbg !272
  %buffer4 = getelementptr inbounds %Simatic.Ax.Json.Deserializer, %Simatic.Ax.Json.Deserializer* %auto_deref_this.addr3, i32 0, i32 1, !dbg !272
  %54 = load [1000 x i8]*, [1000 x i8]** %buffer4, !dbg !272
  %55 = load i16, i16* %index, !dbg !272
  %56 = sext i16 %55 to i32, !dbg !272
  %57 = sub i32 %56, 0, !dbg !272
  %58 = getelementptr inbounds [1000 x i8], [1000 x i8]* %54, i32 0, i32 %57, !dbg !272
  %59 = load i8, i8* %58, !dbg !272
  %60 = icmp eq i8 %59, 32, !dbg !272
  %auto_deref_this.addr5 = load %Simatic.Ax.Json.Deserializer*, %Simatic.Ax.Json.Deserializer** %this.addr, !dbg !272
  %buffer6 = getelementptr inbounds %Simatic.Ax.Json.Deserializer, %Simatic.Ax.Json.Deserializer* %auto_deref_this.addr5, i32 0, i32 1, !dbg !272
  %61 = load [1000 x i8]*, [1000 x i8]** %buffer6, !dbg !272
  %62 = load i16, i16* %index, !dbg !272
  %63 = sext i16 %62 to i32, !dbg !272
  %64 = sub i32 %63, 0, !dbg !272
  %65 = getelementptr inbounds [1000 x i8], [1000 x i8]* %61, i32 0, i32 %64, !dbg !272
  %66 = load i8, i8* %65, !dbg !272
  %67 = icmp eq i8 %66, 34, !dbg !272
  %68 = or i1 %60, %67, !dbg !272
  %69 = xor i1 %68, true, !dbg !272
  br i1 %69, label %bb19, label %bb17, !dbg !272

bb17:                                             ; preds = %bb20, %bb16
  br label %bb18, !dbg !273

bb18:                                             ; preds = %bb17
  br label %bb15, !dbg !271

bb19:                                             ; preds = %bb16
  %70 = load i16, i16* %index, !dbg !274
  store i16 %70, i16* %realEndIndex, !dbg !274
  br label %bb11, !dbg !275

bb20:                                             ; No predecessors!
  br label %bb17, !dbg !275

bb21:                                             ; preds = %bb24
  %71 = load i16, i16* %index, !dbg !271
  %72 = load i16, i16* %1, !dbg !271
  %73 = add i16 %71, %72, !dbg !271
  store i16 %73, i16* %index, !dbg !271
  br label %bb14, !dbg !271

bb22:                                             ; preds = %bb14
  %auto_deref_this.addr7 = load %Simatic.Ax.Json.Deserializer*, %Simatic.Ax.Json.Deserializer** %this.addr, !dbg !272
  %buffer8 = getelementptr inbounds %Simatic.Ax.Json.Deserializer, %Simatic.Ax.Json.Deserializer* %auto_deref_this.addr7, i32 0, i32 1, !dbg !272
  %74 = load [1000 x i8]*, [1000 x i8]** %buffer8, !dbg !272
  %75 = load i16, i16* %index, !dbg !272
  %76 = sext i16 %75 to i32, !dbg !272
  %77 = sub i32 %76, 0, !dbg !272
  %78 = getelementptr inbounds [1000 x i8], [1000 x i8]* %74, i32 0, i32 %77, !dbg !272
  %79 = load i8, i8* %78, !dbg !272
  %80 = icmp eq i8 %79, 32, !dbg !272
  %auto_deref_this.addr9 = load %Simatic.Ax.Json.Deserializer*, %Simatic.Ax.Json.Deserializer** %this.addr, !dbg !272
  %buffer10 = getelementptr inbounds %Simatic.Ax.Json.Deserializer, %Simatic.Ax.Json.Deserializer* %auto_deref_this.addr9, i32 0, i32 1, !dbg !272
  %81 = load [1000 x i8]*, [1000 x i8]** %buffer10, !dbg !272
  %82 = load i16, i16* %index, !dbg !272
  %83 = sext i16 %82 to i32, !dbg !272
  %84 = sub i32 %83, 0, !dbg !272
  %85 = getelementptr inbounds [1000 x i8], [1000 x i8]* %81, i32 0, i32 %84, !dbg !272
  %86 = load i8, i8* %85, !dbg !272
  %87 = icmp eq i8 %86, 34, !dbg !272
  %88 = or i1 %80, %87, !dbg !272
  %89 = xor i1 %88, true, !dbg !272
  br i1 %89, label %bb25, label %bb23, !dbg !272

bb23:                                             ; preds = %bb26, %bb22
  br label %bb24, !dbg !273

bb24:                                             ; preds = %bb23
  br label %bb21, !dbg !271

bb25:                                             ; preds = %bb22
  %90 = load i16, i16* %index, !dbg !274
  store i16 %90, i16* %realEndIndex, !dbg !274
  br label %bb11, !dbg !275

bb26:                                             ; No predecessors!
  br label %bb23, !dbg !275
}

define void @"Simatic.Ax.Json.Deserializer.GetBufferIndizes$I@R@Simatic.Ax.Json.Deserializer@this?O@V@Int16@bufferStart?O@V@Int16@bufferEnd"(%Simatic.Ax.Json.Deserializer* %this, i16* %bufferStart, i16* %bufferEnd) !dbg !276 {
Entry:
  %this.addr = alloca %Simatic.Ax.Json.Deserializer*
  %bufferStart.addr = alloca i16*
  %bufferEnd.addr = alloca i16*
  %index = alloca i16
  %incrementBackwards = alloca i16
  call void @llvm.dbg.declare(metadata i16** %bufferStart.addr, metadata !280, metadata !DIExpression()), !dbg !281
  call void @llvm.dbg.declare(metadata i16** %bufferEnd.addr, metadata !282, metadata !DIExpression()), !dbg !283
  call void @llvm.dbg.declare(metadata %Simatic.Ax.Json.Deserializer** %this.addr, metadata !284, metadata !DIExpression()), !dbg !285
  call void @llvm.dbg.declare(metadata i16* %index, metadata !286, metadata !DIExpression()), !dbg !287
  call void @llvm.dbg.declare(metadata i16* %incrementBackwards, metadata !288, metadata !DIExpression()), !dbg !289
  %0 = alloca i16
  store i16 0, i16* %0
  %1 = alloca i16
  store i16 0, i16* %1
  %2 = alloca i16
  store i16 0, i16* %2
  store %Simatic.Ax.Json.Deserializer* %this, %Simatic.Ax.Json.Deserializer** %this.addr
  store i16* %bufferStart, i16** %bufferStart.addr
  store i16* %bufferEnd, i16** %bufferEnd.addr
  store i16 0, i16* %index
  store i16 -1, i16* %incrementBackwards
  br label %bb1

bb1:                                              ; preds = %Entry
  store i16 999, i16* %0, !dbg !290
  store i16 0, i16* %index, !dbg !291
  br label %bb4, !dbg !292

bb2:                                              ; preds = %bb9, %bb4
  br label %bb3, !dbg !293

bb3:                                              ; preds = %bb2
  %3 = load i16, i16* %incrementBackwards, !dbg !294
  store i16 %3, i16* %1, !dbg !294
  store i16 0, i16* %2, !dbg !295
  store i16 999, i16* %index, !dbg !296
  %4 = load i16, i16* %1, !dbg !296
  %5 = icmp slt i16 %4, 0, !dbg !296
  br i1 %5, label %bb14, label %bb13, !dbg !296

bb4:                                              ; preds = %bb5, %bb1
  %6 = load i16, i16* %index, !dbg !292
  %7 = load i16, i16* %0, !dbg !292
  %8 = icmp sgt i16 %6, %7, !dbg !292
  br i1 %8, label %bb2, label %bb6, !dbg !292

bb5:                                              ; preds = %bb8
  %9 = load i16, i16* %index, !dbg !292
  %10 = add i16 %9, 1, !dbg !292
  store i16 %10, i16* %index, !dbg !292
  br label %bb4, !dbg !292

bb6:                                              ; preds = %bb4
  %auto_deref_this.addr = load %Simatic.Ax.Json.Deserializer*, %Simatic.Ax.Json.Deserializer** %this.addr, !dbg !297
  %buffer = getelementptr inbounds %Simatic.Ax.Json.Deserializer, %Simatic.Ax.Json.Deserializer* %auto_deref_this.addr, i32 0, i32 1, !dbg !297
  %11 = load [1000 x i8]*, [1000 x i8]** %buffer, !dbg !297
  %12 = load i16, i16* %index, !dbg !297
  %13 = sext i16 %12 to i32, !dbg !297
  %14 = sub i32 %13, 0, !dbg !297
  %15 = getelementptr inbounds [1000 x i8], [1000 x i8]* %11, i32 0, i32 %14, !dbg !297
  %16 = load i8, i8* %15, !dbg !297
  %17 = icmp eq i8 %16, 123, !dbg !297
  br i1 %17, label %bb9, label %bb7, !dbg !297

bb7:                                              ; preds = %bb10, %bb6
  br label %bb8, !dbg !298

bb8:                                              ; preds = %bb7
  br label %bb5, !dbg !292

bb9:                                              ; preds = %bb6
  %18 = load i16, i16* %index, !dbg !299
  %auto_deref_bufferStart.addr = load i16*, i16** %bufferStart.addr, !dbg !299
  store i16 %18, i16* %auto_deref_bufferStart.addr, !dbg !299
  br label %bb2, !dbg !300

bb10:                                             ; No predecessors!
  br label %bb7, !dbg !300

bb11:                                             ; preds = %bb25, %bb14, %bb19, %bb13
  br label %bb12, !dbg !301

bb12:                                             ; preds = %bb11
  ret void, !dbg !302

bb13:                                             ; preds = %bb15, %bb3
  %19 = load i16, i16* %index, !dbg !303
  %20 = load i16, i16* %2, !dbg !303
  %21 = icmp sgt i16 %19, %20, !dbg !303
  br i1 %21, label %bb11, label %bb16, !dbg !303

bb14:                                             ; preds = %bb21, %bb3
  %22 = load i16, i16* %index, !dbg !303
  %23 = load i16, i16* %2, !dbg !303
  %24 = icmp slt i16 %22, %23, !dbg !303
  br i1 %24, label %bb11, label %bb22, !dbg !303

bb15:                                             ; preds = %bb18
  %25 = load i16, i16* %index, !dbg !303
  %26 = load i16, i16* %1, !dbg !303
  %27 = add i16 %25, %26, !dbg !303
  store i16 %27, i16* %index, !dbg !303
  br label %bb13, !dbg !303

bb16:                                             ; preds = %bb13
  %auto_deref_this.addr1 = load %Simatic.Ax.Json.Deserializer*, %Simatic.Ax.Json.Deserializer** %this.addr, !dbg !304
  %buffer2 = getelementptr inbounds %Simatic.Ax.Json.Deserializer, %Simatic.Ax.Json.Deserializer* %auto_deref_this.addr1, i32 0, i32 1, !dbg !304
  %28 = load [1000 x i8]*, [1000 x i8]** %buffer2, !dbg !304
  %29 = load i16, i16* %index, !dbg !304
  %30 = sext i16 %29 to i32, !dbg !304
  %31 = sub i32 %30, 0, !dbg !304
  %32 = getelementptr inbounds [1000 x i8], [1000 x i8]* %28, i32 0, i32 %31, !dbg !304
  %33 = load i8, i8* %32, !dbg !304
  %34 = icmp eq i8 %33, 125, !dbg !304
  br i1 %34, label %bb19, label %bb17, !dbg !304

bb17:                                             ; preds = %bb20, %bb16
  br label %bb18, !dbg !305

bb18:                                             ; preds = %bb17
  br label %bb15, !dbg !303

bb19:                                             ; preds = %bb16
  %35 = load i16, i16* %index, !dbg !306
  %auto_deref_bufferEnd.addr = load i16*, i16** %bufferEnd.addr, !dbg !306
  store i16 %35, i16* %auto_deref_bufferEnd.addr, !dbg !306
  br label %bb11, !dbg !307

bb20:                                             ; No predecessors!
  br label %bb17, !dbg !307

bb21:                                             ; preds = %bb24
  %36 = load i16, i16* %index, !dbg !303
  %37 = load i16, i16* %1, !dbg !303
  %38 = add i16 %36, %37, !dbg !303
  store i16 %38, i16* %index, !dbg !303
  br label %bb14, !dbg !303

bb22:                                             ; preds = %bb14
  %auto_deref_this.addr3 = load %Simatic.Ax.Json.Deserializer*, %Simatic.Ax.Json.Deserializer** %this.addr, !dbg !304
  %buffer4 = getelementptr inbounds %Simatic.Ax.Json.Deserializer, %Simatic.Ax.Json.Deserializer* %auto_deref_this.addr3, i32 0, i32 1, !dbg !304
  %39 = load [1000 x i8]*, [1000 x i8]** %buffer4, !dbg !304
  %40 = load i16, i16* %index, !dbg !304
  %41 = sext i16 %40 to i32, !dbg !304
  %42 = sub i32 %41, 0, !dbg !304
  %43 = getelementptr inbounds [1000 x i8], [1000 x i8]* %39, i32 0, i32 %42, !dbg !304
  %44 = load i8, i8* %43, !dbg !304
  %45 = icmp eq i8 %44, 125, !dbg !304
  br i1 %45, label %bb25, label %bb23, !dbg !304

bb23:                                             ; preds = %bb26, %bb22
  br label %bb24, !dbg !305

bb24:                                             ; preds = %bb23
  br label %bb21, !dbg !303

bb25:                                             ; preds = %bb22
  %46 = load i16, i16* %index, !dbg !306
  %auto_deref_bufferEnd.addr5 = load i16*, i16** %bufferEnd.addr, !dbg !306
  store i16 %46, i16* %auto_deref_bufferEnd.addr5, !dbg !306
  br label %bb11, !dbg !307

bb26:                                             ; No predecessors!
  br label %bb23, !dbg !307
}

define i1 @"Simatic.Ax.Json.Deserializer.GetValue_WithKeyArray$I@R@Simatic.Ax.Json.Deserializer@this?I@V@ARRAY [*] OF STRING@keyArray?O@V@Int16@areaStartIndex?O@V@Int16@areaEndIndex"(%Simatic.Ax.Json.Deserializer* %this, %"$ax.ArrayWithBound" %keyArray, i16* %areaStartIndex, i16* %areaEndIndex) !dbg !308 {
Entry:
  %GetValue_WithKeyArray.ret = alloca i1
  %this.addr = alloca %Simatic.Ax.Json.Deserializer*
  %keyArray.addr = alloca %"$ax.ArrayWithBound"
  %areaStartIndex.addr = alloca i16*
  %areaEndIndex.addr = alloca i16*
  %key = alloca %STRING.0
  %keyFound = alloca i1
  %valueFound = alloca i1
  %keyIndex = alloca i32
  %index = alloca i16
  %quotationMarkCount = alloca i16
  %bracesCount = alloca i16
  %squareBrakedCount = alloca i16
  %inKeyArea = alloca i1
  %inValueArea = alloca i1
  %inArrayArea = alloca i1
  %inNestedArea = alloca i1
  %documentStartIndex = alloca i16
  %documentEndIndex = alloca i16
  %keyArrayLower = alloca i32
  %keyArrayUpper = alloca i32
  call void @llvm.dbg.declare(metadata %"$ax.ArrayWithBound"* %keyArray.addr, metadata !312, metadata !DIExpression()), !dbg !313
  call void @llvm.dbg.declare(metadata i16** %areaStartIndex.addr, metadata !314, metadata !DIExpression()), !dbg !315
  call void @llvm.dbg.declare(metadata i16** %areaEndIndex.addr, metadata !316, metadata !DIExpression()), !dbg !317
  call void @llvm.dbg.declare(metadata %Simatic.Ax.Json.Deserializer** %this.addr, metadata !318, metadata !DIExpression()), !dbg !319
  call void @llvm.dbg.declare(metadata %STRING.0* %key, metadata !320, metadata !DIExpression()), !dbg !321
  call void @llvm.dbg.declare(metadata i1* %keyFound, metadata !322, metadata !DIExpression()), !dbg !323
  call void @llvm.dbg.declare(metadata i1* %valueFound, metadata !324, metadata !DIExpression()), !dbg !325
  call void @llvm.dbg.declare(metadata i32* %keyIndex, metadata !326, metadata !DIExpression()), !dbg !327
  call void @llvm.dbg.declare(metadata i16* %index, metadata !328, metadata !DIExpression()), !dbg !329
  call void @llvm.dbg.declare(metadata i16* %quotationMarkCount, metadata !330, metadata !DIExpression()), !dbg !331
  call void @llvm.dbg.declare(metadata i16* %bracesCount, metadata !332, metadata !DIExpression()), !dbg !333
  call void @llvm.dbg.declare(metadata i16* %squareBrakedCount, metadata !334, metadata !DIExpression()), !dbg !335
  call void @llvm.dbg.declare(metadata i1* %inKeyArea, metadata !336, metadata !DIExpression()), !dbg !337
  call void @llvm.dbg.declare(metadata i1* %inValueArea, metadata !338, metadata !DIExpression()), !dbg !339
  call void @llvm.dbg.declare(metadata i1* %inArrayArea, metadata !340, metadata !DIExpression()), !dbg !341
  call void @llvm.dbg.declare(metadata i1* %inNestedArea, metadata !342, metadata !DIExpression()), !dbg !343
  call void @llvm.dbg.declare(metadata i16* %documentStartIndex, metadata !344, metadata !DIExpression()), !dbg !345
  call void @llvm.dbg.declare(metadata i16* %documentEndIndex, metadata !346, metadata !DIExpression()), !dbg !347
  call void @llvm.dbg.declare(metadata i32* %keyArrayLower, metadata !348, metadata !DIExpression()), !dbg !349
  call void @llvm.dbg.declare(metadata i32* %keyArrayUpper, metadata !350, metadata !DIExpression()), !dbg !351
  call void @llvm.dbg.declare(metadata i1* %GetValue_WithKeyArray.ret, metadata !352, metadata !DIExpression()), !dbg !319
  %0 = alloca i16
  store i16 0, i16* %0
  %1 = alloca i16
  store i16 0, i16* %1
  %2 = alloca i32
  store i32 0, i32* %2
  %3 = alloca i16
  store i16 0, i16* %3
  store i1 false, i1* %GetValue_WithKeyArray.ret
  store %Simatic.Ax.Json.Deserializer* %this, %Simatic.Ax.Json.Deserializer** %this.addr
  store %"$ax.ArrayWithBound" %keyArray, %"$ax.ArrayWithBound"* %keyArray.addr
  store i16* %areaStartIndex, i16** %areaStartIndex.addr
  store i16* %areaEndIndex, i16** %areaEndIndex.addr
  store %STRING.0 { i8 -2, i8 0, [255 x i8] zeroinitializer }, %STRING.0* %key
  store i1 false, i1* %keyFound
  store i1 false, i1* %valueFound
  store i32 0, i32* %keyIndex
  store i16 0, i16* %index
  store i16 0, i16* %quotationMarkCount
  store i16 0, i16* %bracesCount
  store i16 0, i16* %squareBrakedCount
  store i1 true, i1* %inKeyArea
  store i1 false, i1* %inValueArea
  store i1 false, i1* %inArrayArea
  store i1 false, i1* %inNestedArea
  store i16 0, i16* %documentStartIndex
  store i16 0, i16* %documentEndIndex
  store i32 0, i32* %keyArrayLower
  store i32 0, i32* %keyArrayUpper
  br label %bb1

bb1:                                              ; preds = %Entry
  %4 = load i16, i16* %documentStartIndex, !dbg !353
  store i16 %4, i16* %0, !dbg !353
  %5 = load i16, i16* %documentEndIndex, !dbg !353
  store i16 %5, i16* %1, !dbg !353
  %auto_deref_this.addr = load %Simatic.Ax.Json.Deserializer*, %Simatic.Ax.Json.Deserializer** %this.addr, !dbg !353
  call void @"Simatic.Ax.Json.Deserializer.GetBufferIndizes$I@R@Simatic.Ax.Json.Deserializer@this?O@V@Int16@bufferStart?O@V@Int16@bufferEnd"(%Simatic.Ax.Json.Deserializer* %auto_deref_this.addr, i16* %0, i16* %1), !dbg !353
  %6 = load i16, i16* %0, !dbg !353
  store i16 %6, i16* %documentStartIndex, !dbg !353
  %7 = load i16, i16* %1, !dbg !353
  store i16 %7, i16* %documentEndIndex, !dbg !353
  %8 = call i32 @"$ax.LowerBound"(%"$ax.ArrayWithBound"* %keyArray.addr, i32 1), !dbg !354
  store i32 %8, i32* %keyArrayLower, !dbg !354
  %9 = call i32 @"$ax.UpperBound"(%"$ax.ArrayWithBound"* %keyArray.addr, i32 1), !dbg !355
  store i32 %9, i32* %keyArrayUpper, !dbg !355
  %10 = load i32, i32* %keyArrayUpper, !dbg !356
  store i32 %10, i32* %2, !dbg !356
  %11 = load i32, i32* %keyArrayLower, !dbg !357
  store i32 %11, i32* %keyIndex, !dbg !357
  br label %bb4, !dbg !358

bb2:                                              ; preds = %bb4
  br label %bb3, !dbg !359

bb3:                                              ; preds = %bb2
  %12 = load i1, i1* %GetValue_WithKeyArray.ret, !dbg !360
  ret i1 %12, !dbg !360

bb4:                                              ; preds = %bb5, %bb1
  %13 = load i32, i32* %keyIndex, !dbg !358
  %14 = load i32, i32* %2, !dbg !358
  %15 = icmp sgt i32 %13, %14, !dbg !358
  br i1 %15, label %bb2, label %bb6, !dbg !358

bb5:                                              ; preds = %bb76
  %16 = load i32, i32* %keyIndex, !dbg !358
  %17 = add i32 %16, 1, !dbg !358
  store i32 %17, i32* %keyIndex, !dbg !358
  br label %bb4, !dbg !358

bb6:                                              ; preds = %bb4
  %18 = getelementptr inbounds %"$ax.ArrayWithBound", %"$ax.ArrayWithBound"* %keyArray.addr, i32 0, i32 0, !dbg !361
  %"$elementPtr" = load i8*, i8** %18, !dbg !361
  %19 = bitcast i8* %"$elementPtr" to %STRING.0*, !dbg !361
  %"$allBounds" = getelementptr inbounds %"$ax.ArrayWithBound", %"$ax.ArrayWithBound"* %keyArray.addr, i32 0, i32 2, !dbg !361
  %20 = load %"$ax.ArrayBounds"*, %"$ax.ArrayBounds"** %"$allBounds", !dbg !361
  %"$bounds0" = getelementptr %"$ax.ArrayBounds", %"$ax.ArrayBounds"* %20, i32 0, !dbg !361
  %21 = getelementptr inbounds %"$ax.ArrayBounds", %"$ax.ArrayBounds"* %"$bounds0", i32 0, i32 0, !dbg !361
  %"$lowerBound0" = load i32, i32* %21, !dbg !361
  %22 = load i32, i32* %keyIndex, !dbg !361
  %23 = sub i32 %22, %"$lowerBound0", !dbg !361
  %24 = getelementptr inbounds %"$ax.ArrayBounds", %"$ax.ArrayBounds"* %"$bounds0", i32 0, i32 2, !dbg !361
  %"$countNextDims0" = load i32, i32* %24, !dbg !361
  %25 = mul i32 %23, %"$countNextDims0", !dbg !361
  %"$gepIndex0" = add i32 0, %25, !dbg !361
  %26 = getelementptr %STRING.0, %STRING.0* %19, i32 %"$gepIndex0", !dbg !361
  %27 = bitcast %STRING.0* %key to i8*, !dbg !361
  %28 = bitcast %STRING.0* %26 to i8*, !dbg !361
  call void @"$ax.AssignST_String"(i8* %27, i8* %28), !dbg !361
  %29 = load i16, i16* %documentEndIndex, !dbg !362
  store i16 %29, i16* %3, !dbg !362
  %30 = load i16, i16* %documentStartIndex, !dbg !363
  store i16 %30, i16* %index, !dbg !363
  br label %bb9, !dbg !364

bb7:                                              ; preds = %bb72, %bb9
  br label %bb8, !dbg !365

bb8:                                              ; preds = %bb7
  %31 = load i1, i1* %keyFound, !dbg !366
  %32 = icmp eq i1 %31, true, !dbg !366
  %33 = load i1, i1* %valueFound, !dbg !366
  %34 = icmp eq i1 %33, true, !dbg !366
  %35 = and i1 %32, %34, !dbg !366
  br i1 %35, label %bb77, label %bb74, !dbg !366

bb9:                                              ; preds = %bb10, %bb6
  %36 = load i16, i16* %index, !dbg !364
  %37 = load i16, i16* %3, !dbg !364
  %38 = icmp sgt i16 %36, %37, !dbg !364
  br i1 %38, label %bb7, label %bb11, !dbg !364

bb10:                                             ; preds = %bb71, %bb65, %bb51, %bb35, %bb22
  %39 = load i16, i16* %index, !dbg !364
  %40 = add i16 %39, 1, !dbg !364
  store i16 %40, i16* %index, !dbg !364
  br label %bb9, !dbg !364

bb11:                                             ; preds = %bb9
  %41 = load i1, i1* %inNestedArea, !dbg !367
  %42 = xor i1 %41, true, !dbg !367
  %43 = load i1, i1* %inKeyArea, !dbg !367
  %44 = and i1 %43, %42, !dbg !367
  %45 = load i1, i1* %inValueArea, !dbg !367
  %46 = xor i1 %45, true, !dbg !367
  %47 = and i1 %44, %46, !dbg !367
  %48 = load i1, i1* %inArrayArea, !dbg !367
  %49 = xor i1 %48, true, !dbg !367
  %50 = and i1 %47, %49, !dbg !367
  br i1 %50, label %bb14, label %bb12, !dbg !367

bb12:                                             ; preds = %bb16, %bb11
  br label %bb13, !dbg !368

bb13:                                             ; preds = %bb12
  %51 = load i1, i1* %inKeyArea, !dbg !369
  %52 = xor i1 %51, true, !dbg !369
  %53 = load i1, i1* %inNestedArea, !dbg !369
  %54 = xor i1 %53, true, !dbg !369
  %55 = and i1 %52, %54, !dbg !369
  br i1 %55, label %bb30, label %bb28, !dbg !369

bb14:                                             ; preds = %bb11
  %56 = load i1, i1* %keyFound, !dbg !370
  %57 = icmp eq i1 %56, false, !dbg !370
  %auto_deref_this.addr1 = load %Simatic.Ax.Json.Deserializer*, %Simatic.Ax.Json.Deserializer** %this.addr, !dbg !370
  %buffer = getelementptr inbounds %Simatic.Ax.Json.Deserializer, %Simatic.Ax.Json.Deserializer* %auto_deref_this.addr1, i32 0, i32 1, !dbg !370
  %58 = load [1000 x i8]*, [1000 x i8]** %buffer, !dbg !370
  %59 = load i16, i16* %index, !dbg !370
  %60 = sext i16 %59 to i32, !dbg !370
  %61 = sub i32 %60, 0, !dbg !370
  %62 = getelementptr inbounds [1000 x i8], [1000 x i8]* %58, i32 0, i32 %61, !dbg !370
  %63 = load i8, i8* %62, !dbg !370
  %64 = icmp eq i8 %63, 34, !dbg !370
  %65 = and i1 %57, %64, !dbg !370
  br i1 %65, label %bb17, label %bb15, !dbg !370

bb15:                                             ; preds = %bb27, %bb14
  br label %bb16, !dbg !371

bb16:                                             ; preds = %bb15
  br label %bb12, !dbg !371

bb17:                                             ; preds = %bb14
  %66 = load i16, i16* %quotationMarkCount, !dbg !372
  %67 = add i16 %66, 1, !dbg !372
  store i16 %67, i16* %quotationMarkCount, !dbg !372
  %68 = load i16, i16* %quotationMarkCount, !dbg !373
  %69 = icmp eq i16 %68, 1, !dbg !373
  br i1 %69, label %bb20, label %bb18, !dbg !373

bb18:                                             ; preds = %bb20, %bb17
  br label %bb19, !dbg !374

bb19:                                             ; preds = %bb18
  %70 = load i16, i16* %quotationMarkCount, !dbg !375
  %71 = icmp eq i16 %70, 2, !dbg !375
  br i1 %71, label %bb23, label %bb21, !dbg !375

bb20:                                             ; preds = %bb17
  %72 = load i16, i16* %index, !dbg !376
  %73 = add i16 %72, 1, !dbg !376
  %auto_deref_areaStartIndex.addr = load i16*, i16** %areaStartIndex.addr, !dbg !376
  store i16 %73, i16* %auto_deref_areaStartIndex.addr, !dbg !376
  br label %bb18, !dbg !376

bb21:                                             ; preds = %bb25, %bb19
  br label %bb22, !dbg !377

bb22:                                             ; preds = %bb21
  br label %bb10, !dbg !378

bb23:                                             ; preds = %bb19
  store i1 false, i1* %inKeyArea, !dbg !379
  %74 = load i16, i16* %index, !dbg !380
  %75 = sub i16 %74, 1, !dbg !380
  %auto_deref_areaEndIndex.addr = load i16*, i16** %areaEndIndex.addr, !dbg !380
  store i16 %75, i16* %auto_deref_areaEndIndex.addr, !dbg !380
  store i16 0, i16* %quotationMarkCount, !dbg !381
  %76 = bitcast %STRING.0* %key to i8*, !dbg !382
  %77 = call i16 @ax_LenST_String(i8* %76), !dbg !382
  %auto_deref_areaEndIndex.addr2 = load i16*, i16** %areaEndIndex.addr, !dbg !382
  %78 = load i16, i16* %auto_deref_areaEndIndex.addr2, !dbg !382
  %auto_deref_areaStartIndex.addr3 = load i16*, i16** %areaStartIndex.addr, !dbg !382
  %79 = load i16, i16* %auto_deref_areaStartIndex.addr3, !dbg !382
  %80 = sub i16 %78, %79, !dbg !382
  %81 = add i16 %80, 1, !dbg !382
  %82 = icmp eq i16 %77, %81, !dbg !382
  br i1 %82, label %bb26, label %bb24, !dbg !382

bb24:                                             ; preds = %bb26, %bb23
  br label %bb25, !dbg !383

bb25:                                             ; preds = %bb24
  br label %bb21, !dbg !383

bb26:                                             ; preds = %bb23
  %auto_deref_this.addr4 = load %Simatic.Ax.Json.Deserializer*, %Simatic.Ax.Json.Deserializer** %this.addr, !dbg !384
  %83 = bitcast %STRING.0* %key to i8*, !dbg !384
  %auto_deref_areaStartIndex.addr5 = load i16*, i16** %areaStartIndex.addr, !dbg !384
  %84 = load i16, i16* %auto_deref_areaStartIndex.addr5, !dbg !384
  %auto_deref_areaEndIndex.addr6 = load i16*, i16** %areaEndIndex.addr, !dbg !384
  %85 = load i16, i16* %auto_deref_areaEndIndex.addr6, !dbg !384
  %86 = call i1 @"Simatic.Ax.Json.Deserializer.KeyIsInIndexSpan$I@R@Simatic.Ax.Json.Deserializer@this?I@V@STRING@key?I@V@Int16@startIndex?I@V@Int16@endIndex"(%Simatic.Ax.Json.Deserializer* %auto_deref_this.addr4, i8* %83, i16 %84, i16 %85), !dbg !384
  store i1 %86, i1* %keyFound, !dbg !384
  br label %bb24, !dbg !384

bb27:                                             ; No predecessors!
  br label %bb15, !dbg !378

bb28:                                             ; preds = %bb39, %bb13
  br label %bb29, !dbg !385

bb29:                                             ; preds = %bb28
  %87 = load i1, i1* %inKeyArea, !dbg !386
  %88 = xor i1 %87, true, !dbg !386
  %89 = load i1, i1* %inArrayArea, !dbg !386
  %90 = xor i1 %89, true, !dbg !386
  %91 = and i1 %88, %90, !dbg !386
  br i1 %91, label %bb46, label %bb44, !dbg !386

bb30:                                             ; preds = %bb13
  %auto_deref_this.addr7 = load %Simatic.Ax.Json.Deserializer*, %Simatic.Ax.Json.Deserializer** %this.addr, !dbg !387
  %buffer8 = getelementptr inbounds %Simatic.Ax.Json.Deserializer, %Simatic.Ax.Json.Deserializer* %auto_deref_this.addr7, i32 0, i32 1, !dbg !387
  %92 = load [1000 x i8]*, [1000 x i8]** %buffer8, !dbg !387
  %93 = load i16, i16* %index, !dbg !387
  %94 = sext i16 %93 to i32, !dbg !387
  %95 = sub i32 %94, 0, !dbg !387
  %96 = getelementptr inbounds [1000 x i8], [1000 x i8]* %92, i32 0, i32 %95, !dbg !387
  %97 = load i8, i8* %96, !dbg !387
  %98 = icmp eq i8 %97, 91, !dbg !387
  br i1 %98, label %bb33, label %bb31, !dbg !387

bb31:                                             ; preds = %bb37, %bb30
  br label %bb32, !dbg !388

bb32:                                             ; preds = %bb31
  %auto_deref_this.addr10 = load %Simatic.Ax.Json.Deserializer*, %Simatic.Ax.Json.Deserializer** %this.addr, !dbg !389
  %buffer11 = getelementptr inbounds %Simatic.Ax.Json.Deserializer, %Simatic.Ax.Json.Deserializer* %auto_deref_this.addr10, i32 0, i32 1, !dbg !389
  %99 = load [1000 x i8]*, [1000 x i8]** %buffer11, !dbg !389
  %100 = load i16, i16* %index, !dbg !389
  %101 = sext i16 %100 to i32, !dbg !389
  %102 = sub i32 %101, 0, !dbg !389
  %103 = getelementptr inbounds [1000 x i8], [1000 x i8]* %99, i32 0, i32 %102, !dbg !389
  %104 = load i8, i8* %103, !dbg !389
  %105 = icmp eq i8 %104, 93, !dbg !389
  %106 = load i1, i1* %inValueArea, !dbg !389
  %107 = xor i1 %106, true, !dbg !389
  %108 = and i1 %105, %107, !dbg !389
  br i1 %108, label %bb40, label %bb38, !dbg !389

bb33:                                             ; preds = %bb30
  %109 = load i16, i16* %squareBrakedCount, !dbg !390
  %110 = add i16 %109, 1, !dbg !390
  store i16 %110, i16* %squareBrakedCount, !dbg !390
  %111 = load i16, i16* %squareBrakedCount, !dbg !391
  %112 = icmp eq i16 %111, 1, !dbg !391
  br i1 %112, label %bb36, label %bb34, !dbg !391

bb34:                                             ; preds = %bb36, %bb33
  br label %bb35, !dbg !392

bb35:                                             ; preds = %bb34
  br label %bb10, !dbg !393

bb36:                                             ; preds = %bb33
  store i1 true, i1* %inArrayArea, !dbg !394
  store i1 false, i1* %inNestedArea, !dbg !395
  store i1 false, i1* %inKeyArea, !dbg !396
  store i1 false, i1* %inValueArea, !dbg !397
  %113 = load i16, i16* %index, !dbg !398
  %auto_deref_areaStartIndex.addr9 = load i16*, i16** %areaStartIndex.addr, !dbg !398
  store i16 %113, i16* %auto_deref_areaStartIndex.addr9, !dbg !398
  br label %bb34, !dbg !398

bb37:                                             ; No predecessors!
  br label %bb31, !dbg !393

bb38:                                             ; preds = %bb42, %bb32
  br label %bb39, !dbg !399

bb39:                                             ; preds = %bb38
  br label %bb28, !dbg !399

bb40:                                             ; preds = %bb32
  %114 = load i16, i16* %squareBrakedCount, !dbg !400
  %115 = sub i16 %114, 1, !dbg !400
  store i16 %115, i16* %squareBrakedCount, !dbg !400
  %116 = load i16, i16* %squareBrakedCount, !dbg !401
  %117 = icmp eq i16 %116, 0, !dbg !401
  br i1 %117, label %bb43, label %bb41, !dbg !401

bb41:                                             ; preds = %bb43, %bb40
  br label %bb42, !dbg !402

bb42:                                             ; preds = %bb41
  br label %bb38, !dbg !402

bb43:                                             ; preds = %bb40
  store i1 true, i1* %inKeyArea, !dbg !403
  store i1 false, i1* %inNestedArea, !dbg !404
  store i1 false, i1* %inValueArea, !dbg !405
  store i1 false, i1* %inArrayArea, !dbg !406
  %118 = load i16, i16* %index, !dbg !407
  %auto_deref_areaEndIndex.addr12 = load i16*, i16** %areaEndIndex.addr, !dbg !407
  store i16 %118, i16* %auto_deref_areaEndIndex.addr12, !dbg !407
  store i1 true, i1* %valueFound, !dbg !408
  br label %bb41, !dbg !408

bb44:                                             ; preds = %bb55, %bb29
  br label %bb45, !dbg !409

bb45:                                             ; preds = %bb44
  %119 = load i1, i1* %inKeyArea, !dbg !410
  %120 = xor i1 %119, true, !dbg !410
  %121 = load i1, i1* %inNestedArea, !dbg !410
  %122 = xor i1 %121, true, !dbg !410
  %123 = and i1 %120, %122, !dbg !410
  %124 = load i1, i1* %inArrayArea, !dbg !410
  %125 = xor i1 %124, true, !dbg !410
  %126 = and i1 %123, %125, !dbg !410
  br i1 %126, label %bb62, label %bb60, !dbg !410

bb46:                                             ; preds = %bb29
  %auto_deref_this.addr13 = load %Simatic.Ax.Json.Deserializer*, %Simatic.Ax.Json.Deserializer** %this.addr, !dbg !411
  %buffer14 = getelementptr inbounds %Simatic.Ax.Json.Deserializer, %Simatic.Ax.Json.Deserializer* %auto_deref_this.addr13, i32 0, i32 1, !dbg !411
  %127 = load [1000 x i8]*, [1000 x i8]** %buffer14, !dbg !411
  %128 = load i16, i16* %index, !dbg !411
  %129 = sext i16 %128 to i32, !dbg !411
  %130 = sub i32 %129, 0, !dbg !411
  %131 = getelementptr inbounds [1000 x i8], [1000 x i8]* %127, i32 0, i32 %130, !dbg !411
  %132 = load i8, i8* %131, !dbg !411
  %133 = icmp eq i8 %132, 123, !dbg !411
  br i1 %133, label %bb49, label %bb47, !dbg !411

bb47:                                             ; preds = %bb53, %bb46
  br label %bb48, !dbg !412

bb48:                                             ; preds = %bb47
  %auto_deref_this.addr16 = load %Simatic.Ax.Json.Deserializer*, %Simatic.Ax.Json.Deserializer** %this.addr, !dbg !413
  %buffer17 = getelementptr inbounds %Simatic.Ax.Json.Deserializer, %Simatic.Ax.Json.Deserializer* %auto_deref_this.addr16, i32 0, i32 1, !dbg !413
  %134 = load [1000 x i8]*, [1000 x i8]** %buffer17, !dbg !413
  %135 = load i16, i16* %index, !dbg !413
  %136 = sext i16 %135 to i32, !dbg !413
  %137 = sub i32 %136, 0, !dbg !413
  %138 = getelementptr inbounds [1000 x i8], [1000 x i8]* %134, i32 0, i32 %137, !dbg !413
  %139 = load i8, i8* %138, !dbg !413
  %140 = icmp eq i8 %139, 125, !dbg !413
  %141 = load i1, i1* %inValueArea, !dbg !413
  %142 = xor i1 %141, true, !dbg !413
  %143 = and i1 %140, %142, !dbg !413
  br i1 %143, label %bb56, label %bb54, !dbg !413

bb49:                                             ; preds = %bb46
  %144 = load i16, i16* %bracesCount, !dbg !414
  %145 = add i16 %144, 1, !dbg !414
  store i16 %145, i16* %bracesCount, !dbg !414
  %146 = load i16, i16* %bracesCount, !dbg !415
  %147 = icmp eq i16 %146, 1, !dbg !415
  br i1 %147, label %bb52, label %bb50, !dbg !415

bb50:                                             ; preds = %bb52, %bb49
  br label %bb51, !dbg !416

bb51:                                             ; preds = %bb50
  br label %bb10, !dbg !417

bb52:                                             ; preds = %bb49
  store i1 true, i1* %inNestedArea, !dbg !418
  store i1 false, i1* %inKeyArea, !dbg !419
  store i1 false, i1* %inValueArea, !dbg !420
  store i1 false, i1* %inArrayArea, !dbg !421
  %148 = load i16, i16* %index, !dbg !422
  %auto_deref_areaStartIndex.addr15 = load i16*, i16** %areaStartIndex.addr, !dbg !422
  store i16 %148, i16* %auto_deref_areaStartIndex.addr15, !dbg !422
  br label %bb50, !dbg !422

bb53:                                             ; No predecessors!
  br label %bb47, !dbg !417

bb54:                                             ; preds = %bb58, %bb48
  br label %bb55, !dbg !423

bb55:                                             ; preds = %bb54
  br label %bb44, !dbg !423

bb56:                                             ; preds = %bb48
  %149 = load i16, i16* %bracesCount, !dbg !424
  %150 = sub i16 %149, 1, !dbg !424
  store i16 %150, i16* %bracesCount, !dbg !424
  %151 = load i16, i16* %bracesCount, !dbg !425
  %152 = icmp eq i16 %151, 0, !dbg !425
  br i1 %152, label %bb59, label %bb57, !dbg !425

bb57:                                             ; preds = %bb59, %bb56
  br label %bb58, !dbg !426

bb58:                                             ; preds = %bb57
  br label %bb54, !dbg !426

bb59:                                             ; preds = %bb56
  store i1 true, i1* %inKeyArea, !dbg !427
  store i1 false, i1* %inNestedArea, !dbg !428
  store i1 false, i1* %inValueArea, !dbg !429
  store i1 false, i1* %inArrayArea, !dbg !430
  %153 = load i16, i16* %index, !dbg !431
  %auto_deref_areaEndIndex.addr18 = load i16*, i16** %areaEndIndex.addr, !dbg !431
  store i16 %153, i16* %auto_deref_areaEndIndex.addr18, !dbg !431
  store i1 true, i1* %valueFound, !dbg !432
  br label %bb57, !dbg !432

bb60:                                             ; preds = %bb68, %bb45
  br label %bb61, !dbg !433

bb61:                                             ; preds = %bb60
  %154 = load i1, i1* %keyFound, !dbg !434
  %155 = icmp eq i1 %154, true, !dbg !434
  %156 = load i1, i1* %valueFound, !dbg !434
  %157 = icmp eq i1 %156, true, !dbg !434
  %158 = and i1 %155, %157, !dbg !434
  br i1 %158, label %bb72, label %bb70, !dbg !434

bb62:                                             ; preds = %bb45
  %auto_deref_this.addr19 = load %Simatic.Ax.Json.Deserializer*, %Simatic.Ax.Json.Deserializer** %this.addr, !dbg !435
  %buffer20 = getelementptr inbounds %Simatic.Ax.Json.Deserializer, %Simatic.Ax.Json.Deserializer* %auto_deref_this.addr19, i32 0, i32 1, !dbg !435
  %159 = load [1000 x i8]*, [1000 x i8]** %buffer20, !dbg !435
  %160 = load i16, i16* %index, !dbg !435
  %161 = sext i16 %160 to i32, !dbg !435
  %162 = sub i32 %161, 0, !dbg !435
  %163 = getelementptr inbounds [1000 x i8], [1000 x i8]* %159, i32 0, i32 %162, !dbg !435
  %164 = load i8, i8* %163, !dbg !435
  %165 = icmp eq i8 %164, 58, !dbg !435
  br i1 %165, label %bb65, label %bb63, !dbg !435

bb63:                                             ; preds = %bb66, %bb62
  br label %bb64, !dbg !436

bb64:                                             ; preds = %bb63
  %auto_deref_this.addr22 = load %Simatic.Ax.Json.Deserializer*, %Simatic.Ax.Json.Deserializer** %this.addr, !dbg !437
  %buffer23 = getelementptr inbounds %Simatic.Ax.Json.Deserializer, %Simatic.Ax.Json.Deserializer* %auto_deref_this.addr22, i32 0, i32 1, !dbg !437
  %166 = load [1000 x i8]*, [1000 x i8]** %buffer23, !dbg !437
  %167 = load i16, i16* %index, !dbg !437
  %168 = sext i16 %167 to i32, !dbg !437
  %169 = sub i32 %168, 0, !dbg !437
  %170 = getelementptr inbounds [1000 x i8], [1000 x i8]* %166, i32 0, i32 %169, !dbg !437
  %171 = load i8, i8* %170, !dbg !437
  %172 = icmp eq i8 %171, 44, !dbg !437
  %auto_deref_this.addr24 = load %Simatic.Ax.Json.Deserializer*, %Simatic.Ax.Json.Deserializer** %this.addr, !dbg !437
  %buffer25 = getelementptr inbounds %Simatic.Ax.Json.Deserializer, %Simatic.Ax.Json.Deserializer* %auto_deref_this.addr24, i32 0, i32 1, !dbg !437
  %173 = load [1000 x i8]*, [1000 x i8]** %buffer25, !dbg !437
  %174 = load i16, i16* %index, !dbg !437
  %175 = sext i16 %174 to i32, !dbg !437
  %176 = sub i32 %175, 0, !dbg !437
  %177 = getelementptr inbounds [1000 x i8], [1000 x i8]* %173, i32 0, i32 %176, !dbg !437
  %178 = load i8, i8* %177, !dbg !437
  %179 = icmp eq i8 %178, 125, !dbg !437
  %180 = or i1 %172, %179, !dbg !437
  br i1 %180, label %bb69, label %bb67, !dbg !437

bb65:                                             ; preds = %bb62
  store i1 true, i1* %inValueArea, !dbg !438
  store i1 false, i1* %inNestedArea, !dbg !439
  store i1 false, i1* %inKeyArea, !dbg !440
  store i1 false, i1* %inArrayArea, !dbg !441
  %181 = load i16, i16* %index, !dbg !442
  %182 = add i16 %181, 1, !dbg !442
  %auto_deref_areaStartIndex.addr21 = load i16*, i16** %areaStartIndex.addr, !dbg !442
  store i16 %182, i16* %auto_deref_areaStartIndex.addr21, !dbg !442
  br label %bb10, !dbg !443

bb66:                                             ; No predecessors!
  br label %bb63, !dbg !443

bb67:                                             ; preds = %bb69, %bb64
  br label %bb68, !dbg !444

bb68:                                             ; preds = %bb67
  br label %bb60, !dbg !444

bb69:                                             ; preds = %bb64
  store i1 true, i1* %inKeyArea, !dbg !445
  store i1 false, i1* %inValueArea, !dbg !446
  store i1 false, i1* %inNestedArea, !dbg !447
  store i1 false, i1* %inArrayArea, !dbg !448
  %183 = load i16, i16* %index, !dbg !449
  %184 = sub i16 %183, 1, !dbg !449
  %auto_deref_areaEndIndex.addr26 = load i16*, i16** %areaEndIndex.addr, !dbg !449
  store i16 %184, i16* %auto_deref_areaEndIndex.addr26, !dbg !449
  store i1 true, i1* %valueFound, !dbg !450
  br label %bb67, !dbg !450

bb70:                                             ; preds = %bb73, %bb61
  br label %bb71, !dbg !451

bb71:                                             ; preds = %bb70
  store i1 false, i1* %valueFound, !dbg !452
  br label %bb10, !dbg !364

bb72:                                             ; preds = %bb61
  br label %bb7, !dbg !453

bb73:                                             ; No predecessors!
  br label %bb70, !dbg !453

bb74:                                             ; preds = %bb8
  %185 = load i1, i1* %keyFound, !dbg !454
  store i1 %185, i1* %GetValue_WithKeyArray.ret, !dbg !454
  %186 = load i1, i1* %GetValue_WithKeyArray.ret, !dbg !455
  ret i1 %186, !dbg !455

bb75:                                             ; preds = %bb78, %bb77
  br label %bb76, !dbg !456

bb76:                                             ; preds = %bb75
  br label %bb5, !dbg !358

bb77:                                             ; preds = %bb8
  %187 = load i1, i1* %keyFound, !dbg !457
  store i1 %187, i1* %GetValue_WithKeyArray.ret, !dbg !457
  %auto_deref_areaStartIndex.addr27 = load i16*, i16** %areaStartIndex.addr, !dbg !458
  %188 = load i16, i16* %auto_deref_areaStartIndex.addr27, !dbg !458
  store i16 %188, i16* %documentStartIndex, !dbg !458
  %auto_deref_areaEndIndex.addr28 = load i16*, i16** %areaEndIndex.addr, !dbg !459
  %189 = load i16, i16* %auto_deref_areaEndIndex.addr28, !dbg !459
  store i16 %189, i16* %documentEndIndex, !dbg !459
  store i1 false, i1* %valueFound, !dbg !460
  store i1 false, i1* %keyFound, !dbg !461
  br label %bb75, !dbg !461

bb78:                                             ; No predecessors!
  br label %bb75, !dbg !455
}

define i1 @"Simatic.Ax.Json.Deserializer.TryParse$I@R@Simatic.Ax.Json.Deserializer@this?I@V@STRING@key?O@V@STRING@value"(%Simatic.Ax.Json.Deserializer* %this, i8* %key, i8* %value) !dbg !462 {
Entry:
  %TryParse.ret = alloca i1
  %this.addr = alloca %Simatic.Ax.Json.Deserializer*
  %key.addr = alloca %STRING.0
  %value.addr = alloca %STRING.0*
  %keyArray = alloca [1 x %STRING.0]
  %valueStartIndex = alloca i16
  %valueEndIndex = alloca i16
  call void @llvm.dbg.declare(metadata %STRING.0* %key.addr, metadata !465, metadata !DIExpression()), !dbg !466
  call void @llvm.dbg.declare(metadata %STRING.0** %value.addr, metadata !467, metadata !DIExpression()), !dbg !468
  call void @llvm.dbg.declare(metadata %Simatic.Ax.Json.Deserializer** %this.addr, metadata !469, metadata !DIExpression()), !dbg !470
  call void @llvm.dbg.declare(metadata [1 x %STRING.0]* %keyArray, metadata !471, metadata !DIExpression()), !dbg !476
  call void @llvm.dbg.declare(metadata i16* %valueStartIndex, metadata !477, metadata !DIExpression()), !dbg !478
  call void @llvm.dbg.declare(metadata i16* %valueEndIndex, metadata !479, metadata !DIExpression()), !dbg !480
  call void @llvm.dbg.declare(metadata i1* %TryParse.ret, metadata !481, metadata !DIExpression()), !dbg !470
  %0 = alloca i16
  store i16 0, i16* %0
  %1 = alloca i16
  store i16 0, i16* %1
  %2 = alloca [1 x %"$ax.ArrayBounds"]
  store [1 x %"$ax.ArrayBounds"] [%"$ax.ArrayBounds" { i32 0, i32 0, i32 1 }], [1 x %"$ax.ArrayBounds"]* %2
  %3 = alloca %"$ax.ArrayWithBound"
  %4 = alloca %STRING.0
  store i1 false, i1* %TryParse.ret
  store %Simatic.Ax.Json.Deserializer* %this, %Simatic.Ax.Json.Deserializer** %this.addr
  store %STRING.0 { i8 -2, i8 0, [255 x i8] zeroinitializer }, %STRING.0* %key.addr
  %5 = bitcast %STRING.0* %key.addr to i8*, !dbg !470
  call void @"$ax.AssignST_String"(i8* %5, i8* %key), !dbg !470
  %6 = bitcast %STRING.0** %value.addr to i8**
  store i8* %value, i8** %6
  store [1 x %STRING.0] [%STRING.0 { i8 -2, i8 0, [255 x i8] zeroinitializer }], [1 x %STRING.0]* %keyArray
  store i16 0, i16* %valueStartIndex
  store i16 0, i16* %valueEndIndex
  br label %bb1

bb1:                                              ; preds = %Entry
  %7 = getelementptr inbounds [1 x %STRING.0], [1 x %STRING.0]* %keyArray, i32 0, i32 0, !dbg !482
  %8 = bitcast %STRING.0* %7 to i8*, !dbg !482
  %9 = bitcast %STRING.0* %key.addr to i8*, !dbg !482
  call void @"$ax.AssignST_String"(i8* %8, i8* %9), !dbg !482
  %10 = load i16, i16* %valueStartIndex, !dbg !483
  store i16 %10, i16* %0, !dbg !483
  %11 = load i16, i16* %valueEndIndex, !dbg !483
  store i16 %11, i16* %1, !dbg !483
  %auto_deref_this.addr = load %Simatic.Ax.Json.Deserializer*, %Simatic.Ax.Json.Deserializer** %this.addr, !dbg !483
  %12 = bitcast [1 x %STRING.0]* %keyArray to i8*, !dbg !483
  store %"$ax.ArrayWithBound" { i8* null, i32 1, %"$ax.ArrayBounds"* null }, %"$ax.ArrayWithBound"* %3, !dbg !483
  %"$array_ptr" = getelementptr inbounds %"$ax.ArrayWithBound", %"$ax.ArrayWithBound"* %3, i32 0, i32 0, !dbg !483
  store i8* %12, i8** %"$array_ptr", !dbg !483
  %"$bounds" = getelementptr inbounds %"$ax.ArrayWithBound", %"$ax.ArrayWithBound"* %3, i32 0, i32 2, !dbg !483
  %13 = bitcast [1 x %"$ax.ArrayBounds"]* %2 to %"$ax.ArrayBounds"*, !dbg !483
  store %"$ax.ArrayBounds"* %13, %"$ax.ArrayBounds"** %"$bounds", !dbg !483
  %14 = load %"$ax.ArrayWithBound", %"$ax.ArrayWithBound"* %3, !dbg !483
  %15 = call i1 @"Simatic.Ax.Json.Deserializer.GetValue_WithKeyArray$I@R@Simatic.Ax.Json.Deserializer@this?I@V@ARRAY [*] OF STRING@keyArray?O@V@Int16@areaStartIndex?O@V@Int16@areaEndIndex"(%Simatic.Ax.Json.Deserializer* %auto_deref_this.addr, %"$ax.ArrayWithBound" %14, i16* %0, i16* %1), !dbg !483
  %16 = load i16, i16* %0, !dbg !483
  store i16 %16, i16* %valueStartIndex, !dbg !483
  %17 = load i16, i16* %1, !dbg !483
  store i16 %17, i16* %valueEndIndex, !dbg !483
  store i1 %15, i1* %TryParse.ret, !dbg !483
  %18 = load i1, i1* %TryParse.ret, !dbg !484
  br i1 %18, label %bb5, label %bb2, !dbg !484

bb2:                                              ; preds = %bb1
  %auto_deref_value.addr2 = load %STRING.0*, %STRING.0** %value.addr, !dbg !485
  %19 = bitcast %STRING.0* %auto_deref_value.addr2 to i8*, !dbg !485
  call void @"$ax.AssignST_String"(i8* %19, i8* getelementptr inbounds (%"STRING[0]", %"STRING[0]"* @"$cStr.27", i32 0, i32 0)), !dbg !485
  br label %bb3, !dbg !485

bb3:                                              ; preds = %bb2, %bb5
  br label %bb4, !dbg !486

bb4:                                              ; preds = %bb3
  %20 = load i1, i1* %TryParse.ret, !dbg !487
  ret i1 %20, !dbg !487

bb5:                                              ; preds = %bb1
  %auto_deref_this.addr1 = load %Simatic.Ax.Json.Deserializer*, %Simatic.Ax.Json.Deserializer** %this.addr, !dbg !488
  %21 = load i16, i16* %valueStartIndex, !dbg !488
  %22 = load i16, i16* %valueEndIndex, !dbg !488
  %23 = call %STRING.0 @"Simatic.Ax.Json.Deserializer.GetValueFromIndex$I@R@Simatic.Ax.Json.Deserializer@this?I@V@Int16@startIndex?I@V@Int16@endIndex"(%Simatic.Ax.Json.Deserializer* %auto_deref_this.addr1, i16 %21, i16 %22), !dbg !488
  store %STRING.0 %23, %STRING.0* %4, !dbg !488
  %auto_deref_value.addr = load %STRING.0*, %STRING.0** %value.addr, !dbg !488
  %24 = bitcast %STRING.0* %auto_deref_value.addr to i8*, !dbg !488
  %25 = bitcast %STRING.0* %4 to i8*, !dbg !488
  call void @"$ax.AssignST_String"(i8* %24, i8* %25), !dbg !488
  br label %bb3, !dbg !488
}

define i1 @"Simatic.Ax.Json.Deserializer.TryParse$I@R@Simatic.Ax.Json.Deserializer@this?I@V@ARRAY [*] OF STRING@keyArray?O@V@STRING@value"(%Simatic.Ax.Json.Deserializer* %this, %"$ax.ArrayWithBound" %keyArray, i8* %value) !dbg !489 {
Entry:
  %TryParse.ret = alloca i1
  %this.addr = alloca %Simatic.Ax.Json.Deserializer*
  %keyArray.addr = alloca %"$ax.ArrayWithBound"
  %value.addr = alloca %STRING.0*
  %valueStartIndex = alloca i16
  %valueEndIndex = alloca i16
  call void @llvm.dbg.declare(metadata %"$ax.ArrayWithBound"* %keyArray.addr, metadata !492, metadata !DIExpression()), !dbg !493
  call void @llvm.dbg.declare(metadata %STRING.0** %value.addr, metadata !494, metadata !DIExpression()), !dbg !495
  call void @llvm.dbg.declare(metadata %Simatic.Ax.Json.Deserializer** %this.addr, metadata !496, metadata !DIExpression()), !dbg !497
  call void @llvm.dbg.declare(metadata i16* %valueStartIndex, metadata !498, metadata !DIExpression()), !dbg !499
  call void @llvm.dbg.declare(metadata i16* %valueEndIndex, metadata !500, metadata !DIExpression()), !dbg !501
  call void @llvm.dbg.declare(metadata i1* %TryParse.ret, metadata !502, metadata !DIExpression()), !dbg !497
  %0 = alloca i16
  store i16 0, i16* %0
  %1 = alloca i16
  store i16 0, i16* %1
  %2 = alloca %STRING.0
  store i1 false, i1* %TryParse.ret
  store %Simatic.Ax.Json.Deserializer* %this, %Simatic.Ax.Json.Deserializer** %this.addr
  store %"$ax.ArrayWithBound" %keyArray, %"$ax.ArrayWithBound"* %keyArray.addr
  %3 = bitcast %STRING.0** %value.addr to i8**
  store i8* %value, i8** %3
  store i16 0, i16* %valueStartIndex
  store i16 0, i16* %valueEndIndex
  br label %bb1

bb1:                                              ; preds = %Entry
  %4 = load i16, i16* %valueStartIndex, !dbg !503
  store i16 %4, i16* %0, !dbg !503
  %5 = load i16, i16* %valueEndIndex, !dbg !503
  store i16 %5, i16* %1, !dbg !503
  %auto_deref_this.addr = load %Simatic.Ax.Json.Deserializer*, %Simatic.Ax.Json.Deserializer** %this.addr, !dbg !503
  %6 = load %"$ax.ArrayWithBound", %"$ax.ArrayWithBound"* %keyArray.addr, !dbg !503
  %7 = call i1 @"Simatic.Ax.Json.Deserializer.GetValue_WithKeyArray$I@R@Simatic.Ax.Json.Deserializer@this?I@V@ARRAY [*] OF STRING@keyArray?O@V@Int16@areaStartIndex?O@V@Int16@areaEndIndex"(%Simatic.Ax.Json.Deserializer* %auto_deref_this.addr, %"$ax.ArrayWithBound" %6, i16* %0, i16* %1), !dbg !503
  %8 = load i16, i16* %0, !dbg !503
  store i16 %8, i16* %valueStartIndex, !dbg !503
  %9 = load i16, i16* %1, !dbg !503
  store i16 %9, i16* %valueEndIndex, !dbg !503
  store i1 %7, i1* %TryParse.ret, !dbg !503
  %10 = load i1, i1* %TryParse.ret, !dbg !504
  br i1 %10, label %bb5, label %bb2, !dbg !504

bb2:                                              ; preds = %bb1
  %auto_deref_value.addr2 = load %STRING.0*, %STRING.0** %value.addr, !dbg !505
  %11 = bitcast %STRING.0* %auto_deref_value.addr2 to i8*, !dbg !505
  call void @"$ax.AssignST_String"(i8* %11, i8* getelementptr inbounds (%"STRING[0]", %"STRING[0]"* @"$cStr.28", i32 0, i32 0)), !dbg !505
  br label %bb3, !dbg !505

bb3:                                              ; preds = %bb2, %bb5
  br label %bb4, !dbg !506

bb4:                                              ; preds = %bb3
  %12 = load i1, i1* %TryParse.ret, !dbg !507
  ret i1 %12, !dbg !507

bb5:                                              ; preds = %bb1
  %auto_deref_this.addr1 = load %Simatic.Ax.Json.Deserializer*, %Simatic.Ax.Json.Deserializer** %this.addr, !dbg !508
  %13 = load i16, i16* %valueStartIndex, !dbg !508
  %14 = load i16, i16* %valueEndIndex, !dbg !508
  %15 = call %STRING.0 @"Simatic.Ax.Json.Deserializer.GetValueFromIndex$I@R@Simatic.Ax.Json.Deserializer@this?I@V@Int16@startIndex?I@V@Int16@endIndex"(%Simatic.Ax.Json.Deserializer* %auto_deref_this.addr1, i16 %13, i16 %14), !dbg !508
  store %STRING.0 %15, %STRING.0* %2, !dbg !508
  %auto_deref_value.addr = load %STRING.0*, %STRING.0** %value.addr, !dbg !508
  %16 = bitcast %STRING.0* %auto_deref_value.addr to i8*, !dbg !508
  %17 = bitcast %STRING.0* %2 to i8*, !dbg !508
  call void @"$ax.AssignST_String"(i8* %16, i8* %17), !dbg !508
  br label %bb3, !dbg !508
}

define i1 @"Simatic.Ax.Json.Deserializer.TryParse$I@R@Simatic.Ax.Json.Deserializer@this?I@V@STRING@key?O@V@Int8@value"(%Simatic.Ax.Json.Deserializer* %this, i8* %key, i8* %value) !dbg !509 {
Entry:
  %TryParse.ret = alloca i1
  %this.addr = alloca %Simatic.Ax.Json.Deserializer*
  %key.addr = alloca %STRING.0
  %value.addr = alloca i8*
  %keyArray = alloca [1 x %STRING.0]
  %valueStartIndex = alloca i16
  %valueEndIndex = alloca i16
  call void @llvm.dbg.declare(metadata %STRING.0* %key.addr, metadata !515, metadata !DIExpression()), !dbg !516
  call void @llvm.dbg.declare(metadata i8** %value.addr, metadata !517, metadata !DIExpression()), !dbg !518
  call void @llvm.dbg.declare(metadata %Simatic.Ax.Json.Deserializer** %this.addr, metadata !519, metadata !DIExpression()), !dbg !520
  call void @llvm.dbg.declare(metadata [1 x %STRING.0]* %keyArray, metadata !521, metadata !DIExpression()), !dbg !522
  call void @llvm.dbg.declare(metadata i16* %valueStartIndex, metadata !523, metadata !DIExpression()), !dbg !524
  call void @llvm.dbg.declare(metadata i16* %valueEndIndex, metadata !525, metadata !DIExpression()), !dbg !526
  call void @llvm.dbg.declare(metadata i1* %TryParse.ret, metadata !527, metadata !DIExpression()), !dbg !520
  %0 = alloca i16
  store i16 0, i16* %0
  %1 = alloca i16
  store i16 0, i16* %1
  %2 = alloca [1 x %"$ax.ArrayBounds"]
  store [1 x %"$ax.ArrayBounds"] [%"$ax.ArrayBounds" { i32 0, i32 0, i32 1 }], [1 x %"$ax.ArrayBounds"]* %2
  %3 = alloca %"$ax.ArrayWithBound"
  %4 = alloca %STRING.0
  %5 = alloca i8
  store i8 0, i8* %5
  store i1 false, i1* %TryParse.ret
  store %Simatic.Ax.Json.Deserializer* %this, %Simatic.Ax.Json.Deserializer** %this.addr
  store %STRING.0 { i8 -2, i8 0, [255 x i8] zeroinitializer }, %STRING.0* %key.addr
  %6 = bitcast %STRING.0* %key.addr to i8*, !dbg !520
  call void @"$ax.AssignST_String"(i8* %6, i8* %key), !dbg !520
  store i8* %value, i8** %value.addr
  store [1 x %STRING.0] [%STRING.0 { i8 -2, i8 0, [255 x i8] zeroinitializer }], [1 x %STRING.0]* %keyArray
  store i16 0, i16* %valueStartIndex
  store i16 0, i16* %valueEndIndex
  br label %bb1

bb1:                                              ; preds = %Entry
  %7 = getelementptr inbounds [1 x %STRING.0], [1 x %STRING.0]* %keyArray, i32 0, i32 0, !dbg !528
  %8 = bitcast %STRING.0* %7 to i8*, !dbg !528
  %9 = bitcast %STRING.0* %key.addr to i8*, !dbg !528
  call void @"$ax.AssignST_String"(i8* %8, i8* %9), !dbg !528
  %10 = load i16, i16* %valueStartIndex, !dbg !529
  store i16 %10, i16* %0, !dbg !529
  %11 = load i16, i16* %valueEndIndex, !dbg !529
  store i16 %11, i16* %1, !dbg !529
  %auto_deref_this.addr = load %Simatic.Ax.Json.Deserializer*, %Simatic.Ax.Json.Deserializer** %this.addr, !dbg !529
  %12 = bitcast [1 x %STRING.0]* %keyArray to i8*, !dbg !529
  store %"$ax.ArrayWithBound" { i8* null, i32 1, %"$ax.ArrayBounds"* null }, %"$ax.ArrayWithBound"* %3, !dbg !529
  %"$array_ptr" = getelementptr inbounds %"$ax.ArrayWithBound", %"$ax.ArrayWithBound"* %3, i32 0, i32 0, !dbg !529
  store i8* %12, i8** %"$array_ptr", !dbg !529
  %"$bounds" = getelementptr inbounds %"$ax.ArrayWithBound", %"$ax.ArrayWithBound"* %3, i32 0, i32 2, !dbg !529
  %13 = bitcast [1 x %"$ax.ArrayBounds"]* %2 to %"$ax.ArrayBounds"*, !dbg !529
  store %"$ax.ArrayBounds"* %13, %"$ax.ArrayBounds"** %"$bounds", !dbg !529
  %14 = load %"$ax.ArrayWithBound", %"$ax.ArrayWithBound"* %3, !dbg !529
  %15 = call i1 @"Simatic.Ax.Json.Deserializer.GetValue_WithKeyArray$I@R@Simatic.Ax.Json.Deserializer@this?I@V@ARRAY [*] OF STRING@keyArray?O@V@Int16@areaStartIndex?O@V@Int16@areaEndIndex"(%Simatic.Ax.Json.Deserializer* %auto_deref_this.addr, %"$ax.ArrayWithBound" %14, i16* %0, i16* %1), !dbg !529
  %16 = load i16, i16* %0, !dbg !529
  store i16 %16, i16* %valueStartIndex, !dbg !529
  %17 = load i16, i16* %1, !dbg !529
  store i16 %17, i16* %valueEndIndex, !dbg !529
  store i1 %15, i1* %TryParse.ret, !dbg !529
  %18 = load i1, i1* %TryParse.ret, !dbg !530
  br i1 %18, label %bb4, label %bb2, !dbg !530

bb2:                                              ; preds = %bb4, %bb1
  br label %bb3, !dbg !531

bb3:                                              ; preds = %bb2
  %19 = load i1, i1* %TryParse.ret, !dbg !532
  %20 = xor i1 %19, true, !dbg !532
  br i1 %20, label %bb7, label %bb5, !dbg !532

bb4:                                              ; preds = %bb1
  %auto_deref_this.addr1 = load %Simatic.Ax.Json.Deserializer*, %Simatic.Ax.Json.Deserializer** %this.addr, !dbg !533
  %21 = load i16, i16* %valueStartIndex, !dbg !533
  %22 = load i16, i16* %valueEndIndex, !dbg !533
  %23 = call %STRING.0 @"Simatic.Ax.Json.Deserializer.GetValueFromIndex$I@R@Simatic.Ax.Json.Deserializer@this?I@V@Int16@startIndex?I@V@Int16@endIndex"(%Simatic.Ax.Json.Deserializer* %auto_deref_this.addr1, i16 %21, i16 %22), !dbg !533
  store %STRING.0 %23, %STRING.0* %4, !dbg !533
  %auto_deref_value.addr = load i8*, i8** %value.addr, !dbg !533
  %24 = load i8, i8* %auto_deref_value.addr, !dbg !533
  store i8 %24, i8* %5, !dbg !533
  %25 = bitcast %STRING.0* %4 to i8*, !dbg !533
  %26 = call i1 @"Simatic.Ax.Conversion.Strings.ToInt$I@V@STRING@str?O@V@Int8@value"(i8* %25, i8* %5), !dbg !533
  %27 = load i8, i8* %5, !dbg !533
  %auto_deref_value.addr2 = load i8*, i8** %value.addr, !dbg !533
  store i8 %27, i8* %auto_deref_value.addr2, !dbg !533
  store i1 %26, i1* %TryParse.ret, !dbg !533
  br label %bb2, !dbg !533

bb5:                                              ; preds = %bb7, %bb3
  br label %bb6, !dbg !534

bb6:                                              ; preds = %bb5
  %28 = load i1, i1* %TryParse.ret, !dbg !535
  ret i1 %28, !dbg !535

bb7:                                              ; preds = %bb3
  %auto_deref_value.addr3 = load i8*, i8** %value.addr, !dbg !536
  store i8 0, i8* %auto_deref_value.addr3, !dbg !536
  br label %bb5, !dbg !536
}

define i1 @"Simatic.Ax.Json.Deserializer.TryParse$I@R@Simatic.Ax.Json.Deserializer@this?I@V@ARRAY [*] OF STRING@keyArray?O@V@Int8@value"(%Simatic.Ax.Json.Deserializer* %this, %"$ax.ArrayWithBound" %keyArray, i8* %value) !dbg !537 {
Entry:
  %TryParse.ret = alloca i1
  %this.addr = alloca %Simatic.Ax.Json.Deserializer*
  %keyArray.addr = alloca %"$ax.ArrayWithBound"
  %value.addr = alloca i8*
  %valueStartIndex = alloca i16
  %valueEndIndex = alloca i16
  call void @llvm.dbg.declare(metadata %"$ax.ArrayWithBound"* %keyArray.addr, metadata !540, metadata !DIExpression()), !dbg !541
  call void @llvm.dbg.declare(metadata i8** %value.addr, metadata !542, metadata !DIExpression()), !dbg !543
  call void @llvm.dbg.declare(metadata %Simatic.Ax.Json.Deserializer** %this.addr, metadata !544, metadata !DIExpression()), !dbg !545
  call void @llvm.dbg.declare(metadata i16* %valueStartIndex, metadata !546, metadata !DIExpression()), !dbg !547
  call void @llvm.dbg.declare(metadata i16* %valueEndIndex, metadata !548, metadata !DIExpression()), !dbg !549
  call void @llvm.dbg.declare(metadata i1* %TryParse.ret, metadata !550, metadata !DIExpression()), !dbg !545
  %0 = alloca i16
  store i16 0, i16* %0
  %1 = alloca i16
  store i16 0, i16* %1
  %2 = alloca %STRING.0
  %3 = alloca i8
  store i8 0, i8* %3
  store i1 false, i1* %TryParse.ret
  store %Simatic.Ax.Json.Deserializer* %this, %Simatic.Ax.Json.Deserializer** %this.addr
  store %"$ax.ArrayWithBound" %keyArray, %"$ax.ArrayWithBound"* %keyArray.addr
  store i8* %value, i8** %value.addr
  store i16 0, i16* %valueStartIndex
  store i16 0, i16* %valueEndIndex
  br label %bb1

bb1:                                              ; preds = %Entry
  %4 = load i16, i16* %valueStartIndex, !dbg !551
  store i16 %4, i16* %0, !dbg !551
  %5 = load i16, i16* %valueEndIndex, !dbg !551
  store i16 %5, i16* %1, !dbg !551
  %auto_deref_this.addr = load %Simatic.Ax.Json.Deserializer*, %Simatic.Ax.Json.Deserializer** %this.addr, !dbg !551
  %6 = load %"$ax.ArrayWithBound", %"$ax.ArrayWithBound"* %keyArray.addr, !dbg !551
  %7 = call i1 @"Simatic.Ax.Json.Deserializer.GetValue_WithKeyArray$I@R@Simatic.Ax.Json.Deserializer@this?I@V@ARRAY [*] OF STRING@keyArray?O@V@Int16@areaStartIndex?O@V@Int16@areaEndIndex"(%Simatic.Ax.Json.Deserializer* %auto_deref_this.addr, %"$ax.ArrayWithBound" %6, i16* %0, i16* %1), !dbg !551
  %8 = load i16, i16* %0, !dbg !551
  store i16 %8, i16* %valueStartIndex, !dbg !551
  %9 = load i16, i16* %1, !dbg !551
  store i16 %9, i16* %valueEndIndex, !dbg !551
  store i1 %7, i1* %TryParse.ret, !dbg !551
  %10 = load i1, i1* %TryParse.ret, !dbg !552
  br i1 %10, label %bb4, label %bb2, !dbg !552

bb2:                                              ; preds = %bb4, %bb1
  br label %bb3, !dbg !553

bb3:                                              ; preds = %bb2
  %11 = load i1, i1* %TryParse.ret, !dbg !554
  %12 = xor i1 %11, true, !dbg !554
  br i1 %12, label %bb7, label %bb5, !dbg !554

bb4:                                              ; preds = %bb1
  %auto_deref_this.addr1 = load %Simatic.Ax.Json.Deserializer*, %Simatic.Ax.Json.Deserializer** %this.addr, !dbg !555
  %13 = load i16, i16* %valueStartIndex, !dbg !555
  %14 = load i16, i16* %valueEndIndex, !dbg !555
  %15 = call %STRING.0 @"Simatic.Ax.Json.Deserializer.GetValueFromIndex$I@R@Simatic.Ax.Json.Deserializer@this?I@V@Int16@startIndex?I@V@Int16@endIndex"(%Simatic.Ax.Json.Deserializer* %auto_deref_this.addr1, i16 %13, i16 %14), !dbg !555
  store %STRING.0 %15, %STRING.0* %2, !dbg !555
  %auto_deref_value.addr = load i8*, i8** %value.addr, !dbg !555
  %16 = load i8, i8* %auto_deref_value.addr, !dbg !555
  store i8 %16, i8* %3, !dbg !555
  %17 = bitcast %STRING.0* %2 to i8*, !dbg !555
  %18 = call i1 @"Simatic.Ax.Conversion.Strings.ToInt$I@V@STRING@str?O@V@Int8@value"(i8* %17, i8* %3), !dbg !555
  %19 = load i8, i8* %3, !dbg !555
  %auto_deref_value.addr2 = load i8*, i8** %value.addr, !dbg !555
  store i8 %19, i8* %auto_deref_value.addr2, !dbg !555
  store i1 %18, i1* %TryParse.ret, !dbg !555
  br label %bb2, !dbg !555

bb5:                                              ; preds = %bb7, %bb3
  br label %bb6, !dbg !556

bb6:                                              ; preds = %bb5
  %20 = load i1, i1* %TryParse.ret, !dbg !557
  ret i1 %20, !dbg !557

bb7:                                              ; preds = %bb3
  %auto_deref_value.addr3 = load i8*, i8** %value.addr, !dbg !558
  store i8 0, i8* %auto_deref_value.addr3, !dbg !558
  br label %bb5, !dbg !558
}

define i1 @"Simatic.Ax.Json.Deserializer.TryParse$I@R@Simatic.Ax.Json.Deserializer@this?I@V@STRING@key?O@V@Int64@value"(%Simatic.Ax.Json.Deserializer* %this, i8* %key, i64* %value) !dbg !559 {
Entry:
  %TryParse.ret = alloca i1
  %this.addr = alloca %Simatic.Ax.Json.Deserializer*
  %key.addr = alloca %STRING.0
  %value.addr = alloca i64*
  %keyArray = alloca [1 x %STRING.0]
  %valueStartIndex = alloca i16
  %valueEndIndex = alloca i16
  call void @llvm.dbg.declare(metadata %STRING.0* %key.addr, metadata !565, metadata !DIExpression()), !dbg !566
  call void @llvm.dbg.declare(metadata i64** %value.addr, metadata !567, metadata !DIExpression()), !dbg !568
  call void @llvm.dbg.declare(metadata %Simatic.Ax.Json.Deserializer** %this.addr, metadata !569, metadata !DIExpression()), !dbg !570
  call void @llvm.dbg.declare(metadata [1 x %STRING.0]* %keyArray, metadata !571, metadata !DIExpression()), !dbg !572
  call void @llvm.dbg.declare(metadata i16* %valueStartIndex, metadata !573, metadata !DIExpression()), !dbg !574
  call void @llvm.dbg.declare(metadata i16* %valueEndIndex, metadata !575, metadata !DIExpression()), !dbg !576
  call void @llvm.dbg.declare(metadata i1* %TryParse.ret, metadata !577, metadata !DIExpression()), !dbg !570
  %0 = alloca i16
  store i16 0, i16* %0
  %1 = alloca i16
  store i16 0, i16* %1
  %2 = alloca [1 x %"$ax.ArrayBounds"]
  store [1 x %"$ax.ArrayBounds"] [%"$ax.ArrayBounds" { i32 0, i32 0, i32 1 }], [1 x %"$ax.ArrayBounds"]* %2
  %3 = alloca %"$ax.ArrayWithBound"
  %4 = alloca %STRING.0
  %5 = alloca i64
  store i64 0, i64* %5
  store i1 false, i1* %TryParse.ret
  store %Simatic.Ax.Json.Deserializer* %this, %Simatic.Ax.Json.Deserializer** %this.addr
  store %STRING.0 { i8 -2, i8 0, [255 x i8] zeroinitializer }, %STRING.0* %key.addr
  %6 = bitcast %STRING.0* %key.addr to i8*, !dbg !570
  call void @"$ax.AssignST_String"(i8* %6, i8* %key), !dbg !570
  store i64* %value, i64** %value.addr
  store [1 x %STRING.0] [%STRING.0 { i8 -2, i8 0, [255 x i8] zeroinitializer }], [1 x %STRING.0]* %keyArray
  store i16 0, i16* %valueStartIndex
  store i16 0, i16* %valueEndIndex
  br label %bb1

bb1:                                              ; preds = %Entry
  %7 = getelementptr inbounds [1 x %STRING.0], [1 x %STRING.0]* %keyArray, i32 0, i32 0, !dbg !578
  %8 = bitcast %STRING.0* %7 to i8*, !dbg !578
  %9 = bitcast %STRING.0* %key.addr to i8*, !dbg !578
  call void @"$ax.AssignST_String"(i8* %8, i8* %9), !dbg !578
  %10 = load i16, i16* %valueStartIndex, !dbg !579
  store i16 %10, i16* %0, !dbg !579
  %11 = load i16, i16* %valueEndIndex, !dbg !579
  store i16 %11, i16* %1, !dbg !579
  %auto_deref_this.addr = load %Simatic.Ax.Json.Deserializer*, %Simatic.Ax.Json.Deserializer** %this.addr, !dbg !579
  %12 = bitcast [1 x %STRING.0]* %keyArray to i8*, !dbg !579
  store %"$ax.ArrayWithBound" { i8* null, i32 1, %"$ax.ArrayBounds"* null }, %"$ax.ArrayWithBound"* %3, !dbg !579
  %"$array_ptr" = getelementptr inbounds %"$ax.ArrayWithBound", %"$ax.ArrayWithBound"* %3, i32 0, i32 0, !dbg !579
  store i8* %12, i8** %"$array_ptr", !dbg !579
  %"$bounds" = getelementptr inbounds %"$ax.ArrayWithBound", %"$ax.ArrayWithBound"* %3, i32 0, i32 2, !dbg !579
  %13 = bitcast [1 x %"$ax.ArrayBounds"]* %2 to %"$ax.ArrayBounds"*, !dbg !579
  store %"$ax.ArrayBounds"* %13, %"$ax.ArrayBounds"** %"$bounds", !dbg !579
  %14 = load %"$ax.ArrayWithBound", %"$ax.ArrayWithBound"* %3, !dbg !579
  %15 = call i1 @"Simatic.Ax.Json.Deserializer.GetValue_WithKeyArray$I@R@Simatic.Ax.Json.Deserializer@this?I@V@ARRAY [*] OF STRING@keyArray?O@V@Int16@areaStartIndex?O@V@Int16@areaEndIndex"(%Simatic.Ax.Json.Deserializer* %auto_deref_this.addr, %"$ax.ArrayWithBound" %14, i16* %0, i16* %1), !dbg !579
  %16 = load i16, i16* %0, !dbg !579
  store i16 %16, i16* %valueStartIndex, !dbg !579
  %17 = load i16, i16* %1, !dbg !579
  store i16 %17, i16* %valueEndIndex, !dbg !579
  store i1 %15, i1* %TryParse.ret, !dbg !579
  %18 = load i1, i1* %TryParse.ret, !dbg !580
  br i1 %18, label %bb4, label %bb2, !dbg !580

bb2:                                              ; preds = %bb4, %bb1
  br label %bb3, !dbg !581

bb3:                                              ; preds = %bb2
  %19 = load i1, i1* %TryParse.ret, !dbg !582
  %20 = xor i1 %19, true, !dbg !582
  br i1 %20, label %bb7, label %bb5, !dbg !582

bb4:                                              ; preds = %bb1
  %auto_deref_this.addr1 = load %Simatic.Ax.Json.Deserializer*, %Simatic.Ax.Json.Deserializer** %this.addr, !dbg !583
  %21 = load i16, i16* %valueStartIndex, !dbg !583
  %22 = load i16, i16* %valueEndIndex, !dbg !583
  %23 = call %STRING.0 @"Simatic.Ax.Json.Deserializer.GetValueFromIndex$I@R@Simatic.Ax.Json.Deserializer@this?I@V@Int16@startIndex?I@V@Int16@endIndex"(%Simatic.Ax.Json.Deserializer* %auto_deref_this.addr1, i16 %21, i16 %22), !dbg !583
  store %STRING.0 %23, %STRING.0* %4, !dbg !583
  %auto_deref_value.addr = load i64*, i64** %value.addr, !dbg !583
  %24 = load i64, i64* %auto_deref_value.addr, !dbg !583
  store i64 %24, i64* %5, !dbg !583
  %25 = bitcast %STRING.0* %4 to i8*, !dbg !583
  %26 = call i1 @"Simatic.Ax.Conversion.StringToAnyInt$I@V@STRING@str?O@V@Int64@value"(i8* %25, i64* %5), !dbg !583
  %27 = load i64, i64* %5, !dbg !583
  %auto_deref_value.addr2 = load i64*, i64** %value.addr, !dbg !583
  store i64 %27, i64* %auto_deref_value.addr2, !dbg !583
  store i1 %26, i1* %TryParse.ret, !dbg !583
  br label %bb2, !dbg !583

bb5:                                              ; preds = %bb7, %bb3
  br label %bb6, !dbg !584

bb6:                                              ; preds = %bb5
  %28 = load i1, i1* %TryParse.ret, !dbg !585
  ret i1 %28, !dbg !585

bb7:                                              ; preds = %bb3
  %auto_deref_value.addr3 = load i64*, i64** %value.addr, !dbg !586
  store i64 0, i64* %auto_deref_value.addr3, !dbg !586
  br label %bb5, !dbg !586
}

define i1 @"Simatic.Ax.Json.Deserializer.TryParse$I@R@Simatic.Ax.Json.Deserializer@this?I@V@ARRAY [*] OF STRING@keyArray?O@V@Int64@value"(%Simatic.Ax.Json.Deserializer* %this, %"$ax.ArrayWithBound" %keyArray, i64* %value) !dbg !587 {
Entry:
  %TryParse.ret = alloca i1
  %this.addr = alloca %Simatic.Ax.Json.Deserializer*
  %keyArray.addr = alloca %"$ax.ArrayWithBound"
  %value.addr = alloca i64*
  %valueStartIndex = alloca i16
  %valueEndIndex = alloca i16
  call void @llvm.dbg.declare(metadata %"$ax.ArrayWithBound"* %keyArray.addr, metadata !590, metadata !DIExpression()), !dbg !591
  call void @llvm.dbg.declare(metadata i64** %value.addr, metadata !592, metadata !DIExpression()), !dbg !593
  call void @llvm.dbg.declare(metadata %Simatic.Ax.Json.Deserializer** %this.addr, metadata !594, metadata !DIExpression()), !dbg !595
  call void @llvm.dbg.declare(metadata i16* %valueStartIndex, metadata !596, metadata !DIExpression()), !dbg !597
  call void @llvm.dbg.declare(metadata i16* %valueEndIndex, metadata !598, metadata !DIExpression()), !dbg !599
  call void @llvm.dbg.declare(metadata i1* %TryParse.ret, metadata !600, metadata !DIExpression()), !dbg !595
  %0 = alloca i16
  store i16 0, i16* %0
  %1 = alloca i16
  store i16 0, i16* %1
  %2 = alloca %STRING.0
  %3 = alloca i64
  store i64 0, i64* %3
  store i1 false, i1* %TryParse.ret
  store %Simatic.Ax.Json.Deserializer* %this, %Simatic.Ax.Json.Deserializer** %this.addr
  store %"$ax.ArrayWithBound" %keyArray, %"$ax.ArrayWithBound"* %keyArray.addr
  store i64* %value, i64** %value.addr
  store i16 0, i16* %valueStartIndex
  store i16 0, i16* %valueEndIndex
  br label %bb1

bb1:                                              ; preds = %Entry
  %4 = load i16, i16* %valueStartIndex, !dbg !601
  store i16 %4, i16* %0, !dbg !601
  %5 = load i16, i16* %valueEndIndex, !dbg !601
  store i16 %5, i16* %1, !dbg !601
  %auto_deref_this.addr = load %Simatic.Ax.Json.Deserializer*, %Simatic.Ax.Json.Deserializer** %this.addr, !dbg !601
  %6 = load %"$ax.ArrayWithBound", %"$ax.ArrayWithBound"* %keyArray.addr, !dbg !601
  %7 = call i1 @"Simatic.Ax.Json.Deserializer.GetValue_WithKeyArray$I@R@Simatic.Ax.Json.Deserializer@this?I@V@ARRAY [*] OF STRING@keyArray?O@V@Int16@areaStartIndex?O@V@Int16@areaEndIndex"(%Simatic.Ax.Json.Deserializer* %auto_deref_this.addr, %"$ax.ArrayWithBound" %6, i16* %0, i16* %1), !dbg !601
  %8 = load i16, i16* %0, !dbg !601
  store i16 %8, i16* %valueStartIndex, !dbg !601
  %9 = load i16, i16* %1, !dbg !601
  store i16 %9, i16* %valueEndIndex, !dbg !601
  store i1 %7, i1* %TryParse.ret, !dbg !601
  %10 = load i1, i1* %TryParse.ret, !dbg !602
  br i1 %10, label %bb4, label %bb2, !dbg !602

bb2:                                              ; preds = %bb4, %bb1
  br label %bb3, !dbg !603

bb3:                                              ; preds = %bb2
  %11 = load i1, i1* %TryParse.ret, !dbg !604
  %12 = xor i1 %11, true, !dbg !604
  br i1 %12, label %bb7, label %bb5, !dbg !604

bb4:                                              ; preds = %bb1
  %auto_deref_this.addr1 = load %Simatic.Ax.Json.Deserializer*, %Simatic.Ax.Json.Deserializer** %this.addr, !dbg !605
  %13 = load i16, i16* %valueStartIndex, !dbg !605
  %14 = load i16, i16* %valueEndIndex, !dbg !605
  %15 = call %STRING.0 @"Simatic.Ax.Json.Deserializer.GetValueFromIndex$I@R@Simatic.Ax.Json.Deserializer@this?I@V@Int16@startIndex?I@V@Int16@endIndex"(%Simatic.Ax.Json.Deserializer* %auto_deref_this.addr1, i16 %13, i16 %14), !dbg !605
  store %STRING.0 %15, %STRING.0* %2, !dbg !605
  %auto_deref_value.addr = load i64*, i64** %value.addr, !dbg !605
  %16 = load i64, i64* %auto_deref_value.addr, !dbg !605
  store i64 %16, i64* %3, !dbg !605
  %17 = bitcast %STRING.0* %2 to i8*, !dbg !605
  %18 = call i1 @"Simatic.Ax.Conversion.StringToAnyInt$I@V@STRING@str?O@V@Int64@value"(i8* %17, i64* %3), !dbg !605
  %19 = load i64, i64* %3, !dbg !605
  %auto_deref_value.addr2 = load i64*, i64** %value.addr, !dbg !605
  store i64 %19, i64* %auto_deref_value.addr2, !dbg !605
  store i1 %18, i1* %TryParse.ret, !dbg !605
  br label %bb2, !dbg !605

bb5:                                              ; preds = %bb7, %bb3
  br label %bb6, !dbg !606

bb6:                                              ; preds = %bb5
  %20 = load i1, i1* %TryParse.ret, !dbg !607
  ret i1 %20, !dbg !607

bb7:                                              ; preds = %bb3
  %auto_deref_value.addr3 = load i64*, i64** %value.addr, !dbg !608
  store i64 0, i64* %auto_deref_value.addr3, !dbg !608
  br label %bb5, !dbg !608
}

define i1 @"Simatic.Ax.Json.Deserializer.TryParse$I@R@Simatic.Ax.Json.Deserializer@this?I@V@STRING@key?O@V@Int32@value"(%Simatic.Ax.Json.Deserializer* %this, i8* %key, i32* %value) !dbg !609 {
Entry:
  %TryParse.ret = alloca i1
  %this.addr = alloca %Simatic.Ax.Json.Deserializer*
  %key.addr = alloca %STRING.0
  %value.addr = alloca i32*
  %keyArray = alloca [1 x %STRING.0]
  %valueStartIndex = alloca i16
  %valueEndIndex = alloca i16
  call void @llvm.dbg.declare(metadata %STRING.0* %key.addr, metadata !613, metadata !DIExpression()), !dbg !614
  call void @llvm.dbg.declare(metadata i32** %value.addr, metadata !615, metadata !DIExpression()), !dbg !616
  call void @llvm.dbg.declare(metadata %Simatic.Ax.Json.Deserializer** %this.addr, metadata !617, metadata !DIExpression()), !dbg !618
  call void @llvm.dbg.declare(metadata [1 x %STRING.0]* %keyArray, metadata !619, metadata !DIExpression()), !dbg !620
  call void @llvm.dbg.declare(metadata i16* %valueStartIndex, metadata !621, metadata !DIExpression()), !dbg !622
  call void @llvm.dbg.declare(metadata i16* %valueEndIndex, metadata !623, metadata !DIExpression()), !dbg !624
  call void @llvm.dbg.declare(metadata i1* %TryParse.ret, metadata !625, metadata !DIExpression()), !dbg !618
  %0 = alloca i16
  store i16 0, i16* %0
  %1 = alloca i16
  store i16 0, i16* %1
  %2 = alloca [1 x %"$ax.ArrayBounds"]
  store [1 x %"$ax.ArrayBounds"] [%"$ax.ArrayBounds" { i32 0, i32 0, i32 1 }], [1 x %"$ax.ArrayBounds"]* %2
  %3 = alloca %"$ax.ArrayWithBound"
  %4 = alloca %STRING.0
  %5 = alloca i32
  store i32 0, i32* %5
  store i1 false, i1* %TryParse.ret
  store %Simatic.Ax.Json.Deserializer* %this, %Simatic.Ax.Json.Deserializer** %this.addr
  store %STRING.0 { i8 -2, i8 0, [255 x i8] zeroinitializer }, %STRING.0* %key.addr
  %6 = bitcast %STRING.0* %key.addr to i8*, !dbg !618
